Archive member included because of file (symbol)

c:/siliconlabs/simplicitystudio/v4/developer/toolchains/gnu_arm/4.9_2015q3/bin/../lib/gcc/arm-none-eabi/4.9.3/armv7-m\libgcc.a(_arm_addsubdf3.o)
                              ./resource managers_src/app_manager.o (__aeabi_f2d)
c:/siliconlabs/simplicitystudio/v4/developer/toolchains/gnu_arm/4.9_2015q3/bin/../lib/gcc/arm-none-eabi/4.9.3/armv7-m\libgcc.a(_arm_addsubsf3.o)
                              ./resource managers_src/app_manager.o (__aeabi_fsub)
c:/siliconlabs/simplicitystudio/v4/developer/toolchains/gnu_arm/4.9_2015q3/bin/../lib/gcc/arm-none-eabi/4.9.3/armv7-m\libgcc.a(_arm_muldivsf3.o)
                              ./resource managers_src/app_manager.o (__aeabi_fmul)
c:/siliconlabs/simplicitystudio/v4/developer/toolchains/gnu_arm/4.9_2015q3/bin/../lib/gcc/arm-none-eabi/4.9.3/armv7-m\libgcc.a(_arm_cmpsf2.o)
                              ./resource managers_src/app_manager.o (__aeabi_fcmplt)
c:/siliconlabs/simplicitystudio/v4/developer/toolchains/gnu_arm/4.9_2015q3/bin/../lib/gcc/arm-none-eabi/4.9.3/armv7-m\libgcc.a(_arm_fixsfsi.o)
                              ./resource managers_src/app_manager.o (__aeabi_f2iz)
c:/siliconlabs/simplicitystudio/v4/developer/toolchains/gnu_arm/4.9_2015q3/bin/../lib/gcc/arm-none-eabi/4.9.3/armv7-m\libgcc.a(_aeabi_uldivmod.o)
                              ./emlib/src/em_usart.o (__aeabi_uldivmod)
c:/siliconlabs/simplicitystudio/v4/developer/toolchains/gnu_arm/4.9_2015q3/bin/../lib/gcc/arm-none-eabi/4.9.3/armv7-m\libgcc.a(bpabi.o)
                              c:/siliconlabs/simplicitystudio/v4/developer/toolchains/gnu_arm/4.9_2015q3/bin/../lib/gcc/arm-none-eabi/4.9.3/armv7-m\libgcc.a(_aeabi_uldivmod.o) (__gnu_uldivmod_helper)
c:/siliconlabs/simplicitystudio/v4/developer/toolchains/gnu_arm/4.9_2015q3/bin/../lib/gcc/arm-none-eabi/4.9.3/armv7-m\libgcc.a(_dvmd_tls.o)
                              c:/siliconlabs/simplicitystudio/v4/developer/toolchains/gnu_arm/4.9_2015q3/bin/../lib/gcc/arm-none-eabi/4.9.3/armv7-m\libgcc.a(_aeabi_uldivmod.o) (__aeabi_ldiv0)
c:/siliconlabs/simplicitystudio/v4/developer/toolchains/gnu_arm/4.9_2015q3/bin/../lib/gcc/arm-none-eabi/4.9.3/armv7-m\libgcc.a(_divdi3.o)
                              c:/siliconlabs/simplicitystudio/v4/developer/toolchains/gnu_arm/4.9_2015q3/bin/../lib/gcc/arm-none-eabi/4.9.3/armv7-m\libgcc.a(bpabi.o) (__divdi3)
c:/siliconlabs/simplicitystudio/v4/developer/toolchains/gnu_arm/4.9_2015q3/bin/../lib/gcc/arm-none-eabi/4.9.3/armv7-m\libgcc.a(_udivdi3.o)
                              c:/siliconlabs/simplicitystudio/v4/developer/toolchains/gnu_arm/4.9_2015q3/bin/../lib/gcc/arm-none-eabi/4.9.3/armv7-m\libgcc.a(bpabi.o) (__udivdi3)
c:/siliconlabs/simplicitystudio/v4/developer/toolchains/gnu_arm/4.9_2015q3/bin/../lib/gcc/arm-none-eabi/4.9.3/../../../../arm-none-eabi/lib/armv7-m\libc_nano.a(lib_a-exit.o)
                              c:/siliconlabs/simplicitystudio/v4/developer/toolchains/gnu_arm/4.9_2015q3/bin/../lib/gcc/arm-none-eabi/4.9.3/../../../../arm-none-eabi/lib/armv7-m/crt0.o (exit)
c:/siliconlabs/simplicitystudio/v4/developer/toolchains/gnu_arm/4.9_2015q3/bin/../lib/gcc/arm-none-eabi/4.9.3/../../../../arm-none-eabi/lib/armv7-m\libc_nano.a(lib_a-impure.o)
                              c:/siliconlabs/simplicitystudio/v4/developer/toolchains/gnu_arm/4.9_2015q3/bin/../lib/gcc/arm-none-eabi/4.9.3/../../../../arm-none-eabi/lib/armv7-m\libc_nano.a(lib_a-exit.o) (_global_impure_ptr)
c:/siliconlabs/simplicitystudio/v4/developer/toolchains/gnu_arm/4.9_2015q3/bin/../lib/gcc/arm-none-eabi/4.9.3/../../../../arm-none-eabi/lib/armv7-m\libc_nano.a(lib_a-init.o)
                              c:/siliconlabs/simplicitystudio/v4/developer/toolchains/gnu_arm/4.9_2015q3/bin/../lib/gcc/arm-none-eabi/4.9.3/../../../../arm-none-eabi/lib/armv7-m/crt0.o (__libc_init_array)
c:/siliconlabs/simplicitystudio/v4/developer/toolchains/gnu_arm/4.9_2015q3/bin/../lib/gcc/arm-none-eabi/4.9.3/../../../../arm-none-eabi/lib/armv7-m\libc_nano.a(lib_a-memcpy.o)
                              ./lmic/lmic.o (memcpy)
c:/siliconlabs/simplicitystudio/v4/developer/toolchains/gnu_arm/4.9_2015q3/bin/../lib/gcc/arm-none-eabi/4.9.3/../../../../arm-none-eabi/lib/armv7-m\libc_nano.a(lib_a-memset.o)
                              c:/siliconlabs/simplicitystudio/v4/developer/toolchains/gnu_arm/4.9_2015q3/bin/../lib/gcc/arm-none-eabi/4.9.3/../../../../arm-none-eabi/lib/armv7-m/crt0.o (memset)
c:/siliconlabs/simplicitystudio/v4/developer/toolchains/gnu_arm/4.9_2015q3/bin/../lib/gcc/arm-none-eabi/4.9.3/../../../../arm-none-eabi/lib/armv7-m\libc_nano.a(lib_a-nano-vfprintf_float.o)
                              (_printf_float)
c:/siliconlabs/simplicitystudio/v4/developer/toolchains/gnu_arm/4.9_2015q3/bin/../lib/gcc/arm-none-eabi/4.9.3/../../../../arm-none-eabi/lib/armv7-m\libc_nano.a(lib_a-nano-vfprintf_i.o)
                              c:/siliconlabs/simplicitystudio/v4/developer/toolchains/gnu_arm/4.9_2015q3/bin/../lib/gcc/arm-none-eabi/4.9.3/../../../../arm-none-eabi/lib/armv7-m\libc_nano.a(lib_a-nano-vfprintf_float.o) (_printf_common)
c:/siliconlabs/simplicitystudio/v4/developer/toolchains/gnu_arm/4.9_2015q3/bin/../lib/gcc/arm-none-eabi/4.9.3/../../../../arm-none-eabi/lib/armv7-m\libc_nano.a(lib_a-s_fpclassify.o)
                              c:/siliconlabs/simplicitystudio/v4/developer/toolchains/gnu_arm/4.9_2015q3/bin/../lib/gcc/arm-none-eabi/4.9.3/../../../../arm-none-eabi/lib/armv7-m\libc_nano.a(lib_a-nano-vfprintf_float.o) (__fpclassifyd)
c:/siliconlabs/simplicitystudio/v4/developer/toolchains/gnu_arm/4.9_2015q3/bin/../lib/gcc/arm-none-eabi/4.9.3/../../../../arm-none-eabi/lib/armv7-m\libc_nano.a(lib_a-sprintf.o)
                              ./devices_src/tbr.o (sprintf)
c:/siliconlabs/simplicitystudio/v4/developer/toolchains/gnu_arm/4.9_2015q3/bin/../lib/gcc/arm-none-eabi/4.9.3/../../../../arm-none-eabi/lib/armv7-m\libc_nano.a(lib_a-strchr.o)
                              ./devices_src/tbr.o (strchr)
c:/siliconlabs/simplicitystudio/v4/developer/toolchains/gnu_arm/4.9_2015q3/bin/../lib/gcc/arm-none-eabi/4.9.3/../../../../arm-none-eabi/lib/armv7-m\libc_nano.a(lib_a-strlen.o)
                              ./devices_src/tbr.o (strlen)
c:/siliconlabs/simplicitystudio/v4/developer/toolchains/gnu_arm/4.9_2015q3/bin/../lib/gcc/arm-none-eabi/4.9.3/../../../../arm-none-eabi/lib/armv7-m\libc_nano.a(lib_a-strncmp.o)
                              ./devices_src/tbr.o (strncmp)
c:/siliconlabs/simplicitystudio/v4/developer/toolchains/gnu_arm/4.9_2015q3/bin/../lib/gcc/arm-none-eabi/4.9.3/../../../../arm-none-eabi/lib/armv7-m\libc_nano.a(lib_a-strstr.o)
                              ./devices_src/tbr.o (strstr)
c:/siliconlabs/simplicitystudio/v4/developer/toolchains/gnu_arm/4.9_2015q3/bin/../lib/gcc/arm-none-eabi/4.9.3/../../../../arm-none-eabi/lib/armv7-m\libc_nano.a(lib_a-strtok.o)
                              ./devices_src/tbr.o (strtok)
c:/siliconlabs/simplicitystudio/v4/developer/toolchains/gnu_arm/4.9_2015q3/bin/../lib/gcc/arm-none-eabi/4.9.3/../../../../arm-none-eabi/lib/armv7-m\libc_nano.a(lib_a-strtok_r.o)
                              c:/siliconlabs/simplicitystudio/v4/developer/toolchains/gnu_arm/4.9_2015q3/bin/../lib/gcc/arm-none-eabi/4.9.3/../../../../arm-none-eabi/lib/armv7-m\libc_nano.a(lib_a-strtok.o) (__strtok_r)
c:/siliconlabs/simplicitystudio/v4/developer/toolchains/gnu_arm/4.9_2015q3/bin/../lib/gcc/arm-none-eabi/4.9.3/../../../../arm-none-eabi/lib/armv7-m\libc_nano.a(lib_a-strtoul.o)
                              ./devices_src/tbr.o (strtoul)
c:/siliconlabs/simplicitystudio/v4/developer/toolchains/gnu_arm/4.9_2015q3/bin/../lib/gcc/arm-none-eabi/4.9.3/../../../../arm-none-eabi/lib/armv7-m\libc_nano.a(lib_a-ctype_.o)
                              c:/siliconlabs/simplicitystudio/v4/developer/toolchains/gnu_arm/4.9_2015q3/bin/../lib/gcc/arm-none-eabi/4.9.3/../../../../arm-none-eabi/lib/armv7-m\libc_nano.a(lib_a-strtoul.o) (__ctype_ptr__)
c:/siliconlabs/simplicitystudio/v4/developer/toolchains/gnu_arm/4.9_2015q3/bin/../lib/gcc/arm-none-eabi/4.9.3/../../../../arm-none-eabi/lib/armv7-m\libc_nano.a(lib_a-dtoa.o)
                              c:/siliconlabs/simplicitystudio/v4/developer/toolchains/gnu_arm/4.9_2015q3/bin/../lib/gcc/arm-none-eabi/4.9.3/../../../../arm-none-eabi/lib/armv7-m\libc_nano.a(lib_a-nano-vfprintf_float.o) (_dtoa_r)
c:/siliconlabs/simplicitystudio/v4/developer/toolchains/gnu_arm/4.9_2015q3/bin/../lib/gcc/arm-none-eabi/4.9.3/../../../../arm-none-eabi/lib/armv7-m\libc_nano.a(lib_a-locale.o)
                              c:/siliconlabs/simplicitystudio/v4/developer/toolchains/gnu_arm/4.9_2015q3/bin/../lib/gcc/arm-none-eabi/4.9.3/../../../../arm-none-eabi/lib/armv7-m\libc_nano.a(lib_a-nano-vfprintf_float.o) (_localeconv_r)
c:/siliconlabs/simplicitystudio/v4/developer/toolchains/gnu_arm/4.9_2015q3/bin/../lib/gcc/arm-none-eabi/4.9.3/../../../../arm-none-eabi/lib/armv7-m\libc_nano.a(lib_a-malloc.o)
                              c:/siliconlabs/simplicitystudio/v4/developer/toolchains/gnu_arm/4.9_2015q3/bin/../lib/gcc/arm-none-eabi/4.9.3/../../../../arm-none-eabi/lib/armv7-m\libc_nano.a(lib_a-strtok.o) (malloc)
c:/siliconlabs/simplicitystudio/v4/developer/toolchains/gnu_arm/4.9_2015q3/bin/../lib/gcc/arm-none-eabi/4.9.3/../../../../arm-none-eabi/lib/armv7-m\libc_nano.a(lib_a-memchr.o)
                              c:/siliconlabs/simplicitystudio/v4/developer/toolchains/gnu_arm/4.9_2015q3/bin/../lib/gcc/arm-none-eabi/4.9.3/../../../../arm-none-eabi/lib/armv7-m\libc_nano.a(lib_a-nano-vfprintf_i.o) (memchr)
c:/siliconlabs/simplicitystudio/v4/developer/toolchains/gnu_arm/4.9_2015q3/bin/../lib/gcc/arm-none-eabi/4.9.3/../../../../arm-none-eabi/lib/armv7-m\libc_nano.a(lib_a-mprec.o)
                              c:/siliconlabs/simplicitystudio/v4/developer/toolchains/gnu_arm/4.9_2015q3/bin/../lib/gcc/arm-none-eabi/4.9.3/../../../../arm-none-eabi/lib/armv7-m\libc_nano.a(lib_a-dtoa.o) (_Balloc)
c:/siliconlabs/simplicitystudio/v4/developer/toolchains/gnu_arm/4.9_2015q3/bin/../lib/gcc/arm-none-eabi/4.9.3/../../../../arm-none-eabi/lib/armv7-m\libc_nano.a(lib_a-nano-callocr.o)
                              c:/siliconlabs/simplicitystudio/v4/developer/toolchains/gnu_arm/4.9_2015q3/bin/../lib/gcc/arm-none-eabi/4.9.3/../../../../arm-none-eabi/lib/armv7-m\libc_nano.a(lib_a-mprec.o) (_calloc_r)
c:/siliconlabs/simplicitystudio/v4/developer/toolchains/gnu_arm/4.9_2015q3/bin/../lib/gcc/arm-none-eabi/4.9.3/../../../../arm-none-eabi/lib/armv7-m\libc_nano.a(lib_a-nano-freer.o)
                              c:/siliconlabs/simplicitystudio/v4/developer/toolchains/gnu_arm/4.9_2015q3/bin/../lib/gcc/arm-none-eabi/4.9.3/../../../../arm-none-eabi/lib/armv7-m\libc_nano.a(lib_a-malloc.o) (_free_r)
c:/siliconlabs/simplicitystudio/v4/developer/toolchains/gnu_arm/4.9_2015q3/bin/../lib/gcc/arm-none-eabi/4.9.3/../../../../arm-none-eabi/lib/armv7-m\libc_nano.a(lib_a-nano-mallocr.o)
                              c:/siliconlabs/simplicitystudio/v4/developer/toolchains/gnu_arm/4.9_2015q3/bin/../lib/gcc/arm-none-eabi/4.9.3/../../../../arm-none-eabi/lib/armv7-m\libc_nano.a(lib_a-malloc.o) (_malloc_r)
c:/siliconlabs/simplicitystudio/v4/developer/toolchains/gnu_arm/4.9_2015q3/bin/../lib/gcc/arm-none-eabi/4.9.3/../../../../arm-none-eabi/lib/armv7-m\libc_nano.a(lib_a-nano-svfprintf.o)
                              c:/siliconlabs/simplicitystudio/v4/developer/toolchains/gnu_arm/4.9_2015q3/bin/../lib/gcc/arm-none-eabi/4.9.3/../../../../arm-none-eabi/lib/armv7-m\libc_nano.a(lib_a-sprintf.o) (_svfprintf_r)
c:/siliconlabs/simplicitystudio/v4/developer/toolchains/gnu_arm/4.9_2015q3/bin/../lib/gcc/arm-none-eabi/4.9.3/../../../../arm-none-eabi/lib/armv7-m\libc_nano.a(lib_a-sbrkr.o)
                              c:/siliconlabs/simplicitystudio/v4/developer/toolchains/gnu_arm/4.9_2015q3/bin/../lib/gcc/arm-none-eabi/4.9.3/../../../../arm-none-eabi/lib/armv7-m\libc_nano.a(lib_a-nano-mallocr.o) (_sbrk_r)
c:/siliconlabs/simplicitystudio/v4/developer/toolchains/gnu_arm/4.9_2015q3/bin/../lib/gcc/arm-none-eabi/4.9.3/../../../../arm-none-eabi/lib/armv7-m\libc_nano.a(lib_a-strcmp.o)
                              c:/siliconlabs/simplicitystudio/v4/developer/toolchains/gnu_arm/4.9_2015q3/bin/../lib/gcc/arm-none-eabi/4.9.3/../../../../arm-none-eabi/lib/armv7-m\libc_nano.a(lib_a-locale.o) (strcmp)
c:/siliconlabs/simplicitystudio/v4/developer/toolchains/gnu_arm/4.9_2015q3/bin/../lib/gcc/arm-none-eabi/4.9.3/../../../../arm-none-eabi/lib/armv7-m\libc_nano.a(lib_a-memmove.o)
                              c:/siliconlabs/simplicitystudio/v4/developer/toolchains/gnu_arm/4.9_2015q3/bin/../lib/gcc/arm-none-eabi/4.9.3/../../../../arm-none-eabi/lib/armv7-m\libc_nano.a(lib_a-nano-svfprintf.o) (memmove)
c:/siliconlabs/simplicitystudio/v4/developer/toolchains/gnu_arm/4.9_2015q3/bin/../lib/gcc/arm-none-eabi/4.9.3/../../../../arm-none-eabi/lib/armv7-m\libc_nano.a(lib_a-nano-reallocr.o)
                              c:/siliconlabs/simplicitystudio/v4/developer/toolchains/gnu_arm/4.9_2015q3/bin/../lib/gcc/arm-none-eabi/4.9.3/../../../../arm-none-eabi/lib/armv7-m\libc_nano.a(lib_a-nano-svfprintf.o) (_realloc_r)
c:/siliconlabs/simplicitystudio/v4/developer/toolchains/gnu_arm/4.9_2015q3/bin/../lib/gcc/arm-none-eabi/4.9.3/../../../../arm-none-eabi/lib/armv7-m\libc_nano.a(lib_a-reent.o)
                              c:/siliconlabs/simplicitystudio/v4/developer/toolchains/gnu_arm/4.9_2015q3/bin/../lib/gcc/arm-none-eabi/4.9.3/../../../../arm-none-eabi/lib/armv7-m\libc_nano.a(lib_a-sbrkr.o) (errno)
c:/siliconlabs/simplicitystudio/v4/developer/toolchains/gnu_arm/4.9_2015q3/bin/../lib/gcc/arm-none-eabi/4.9.3/../../../../arm-none-eabi/lib/armv7-m\libc_nano.a(lib_a-nano-msizer.o)
                              c:/siliconlabs/simplicitystudio/v4/developer/toolchains/gnu_arm/4.9_2015q3/bin/../lib/gcc/arm-none-eabi/4.9.3/../../../../arm-none-eabi/lib/armv7-m\libc_nano.a(lib_a-nano-reallocr.o) (_malloc_usable_size_r)
c:/siliconlabs/simplicitystudio/v4/developer/toolchains/gnu_arm/4.9_2015q3/bin/../lib/gcc/arm-none-eabi/4.9.3/../../../../arm-none-eabi/lib/armv7-m\libnosys.a(sbrk.o)
                              c:/siliconlabs/simplicitystudio/v4/developer/toolchains/gnu_arm/4.9_2015q3/bin/../lib/gcc/arm-none-eabi/4.9.3/../../../../arm-none-eabi/lib/armv7-m\libc_nano.a(lib_a-sbrkr.o) (_sbrk)
c:/siliconlabs/simplicitystudio/v4/developer/toolchains/gnu_arm/4.9_2015q3/bin/../lib/gcc/arm-none-eabi/4.9.3/../../../../arm-none-eabi/lib/armv7-m\libnosys.a(_exit.o)
                              c:/siliconlabs/simplicitystudio/v4/developer/toolchains/gnu_arm/4.9_2015q3/bin/../lib/gcc/arm-none-eabi/4.9.3/../../../../arm-none-eabi/lib/armv7-m\libc_nano.a(lib_a-exit.o) (_exit)
c:/siliconlabs/simplicitystudio/v4/developer/toolchains/gnu_arm/4.9_2015q3/bin/../lib/gcc/arm-none-eabi/4.9.3/armv7-m\libgcc.a(_arm_muldivdf3.o)
                              c:/siliconlabs/simplicitystudio/v4/developer/toolchains/gnu_arm/4.9_2015q3/bin/../lib/gcc/arm-none-eabi/4.9.3/../../../../arm-none-eabi/lib/armv7-m\libc_nano.a(lib_a-dtoa.o) (__aeabi_dmul)
c:/siliconlabs/simplicitystudio/v4/developer/toolchains/gnu_arm/4.9_2015q3/bin/../lib/gcc/arm-none-eabi/4.9.3/armv7-m\libgcc.a(_arm_cmpdf2.o)
                              c:/siliconlabs/simplicitystudio/v4/developer/toolchains/gnu_arm/4.9_2015q3/bin/../lib/gcc/arm-none-eabi/4.9.3/../../../../arm-none-eabi/lib/armv7-m\libc_nano.a(lib_a-nano-vfprintf_float.o) (__aeabi_dcmpeq)
c:/siliconlabs/simplicitystudio/v4/developer/toolchains/gnu_arm/4.9_2015q3/bin/../lib/gcc/arm-none-eabi/4.9.3/armv7-m\libgcc.a(_arm_fixdfsi.o)
                              c:/siliconlabs/simplicitystudio/v4/developer/toolchains/gnu_arm/4.9_2015q3/bin/../lib/gcc/arm-none-eabi/4.9.3/../../../../arm-none-eabi/lib/armv7-m\libc_nano.a(lib_a-dtoa.o) (__aeabi_d2iz)

Allocating common symbols
Common symbol       size              file

errno               0x4               c:/siliconlabs/simplicitystudio/v4/developer/toolchains/gnu_arm/4.9_2015q3/bin/../lib/gcc/arm-none-eabi/4.9.3/../../../../arm-none-eabi/lib/armv7-m\libc_nano.a(lib_a-reent.o)
AESKEY              0xb0              ./lmic/aes.o
diff_in_tstamp      0x4               ./resource managers_src/lpwan_manager.o
running_tstamp      0x28              ./resource managers_src/lpwan_manager.o
irqState            0x4               ./hal/hal.o
AESAUX              0x10              ./lmic/aes.o
LMIC                0x244             ./lmic/lmic.o
lora_buffer         0x200             ./src/main.o
ref_tstamp          0x28              ./resource managers_src/lpwan_manager.o
resuable_buffer     0x80              ./devices_src/tbr.o
temp_buf            0x80              ./hal/hal.o
real_time_buf       0x400             ./resource managers_src/lpwan_manager.o

Discarded input sections

 .text          0x00000000        0x0 c:/siliconlabs/simplicitystudio/v4/developer/toolchains/gnu_arm/4.9_2015q3/bin/../lib/gcc/arm-none-eabi/4.9.3/armv7-m/crti.o
 .data          0x00000000        0x0 c:/siliconlabs/simplicitystudio/v4/developer/toolchains/gnu_arm/4.9_2015q3/bin/../lib/gcc/arm-none-eabi/4.9.3/armv7-m/crti.o
 .bss           0x00000000        0x0 c:/siliconlabs/simplicitystudio/v4/developer/toolchains/gnu_arm/4.9_2015q3/bin/../lib/gcc/arm-none-eabi/4.9.3/armv7-m/crti.o
 .data          0x00000000        0x4 c:/siliconlabs/simplicitystudio/v4/developer/toolchains/gnu_arm/4.9_2015q3/bin/../lib/gcc/arm-none-eabi/4.9.3/armv7-m/crtbegin.o
 .data          0x00000000        0x0 c:/siliconlabs/simplicitystudio/v4/developer/toolchains/gnu_arm/4.9_2015q3/bin/../lib/gcc/arm-none-eabi/4.9.3/../../../../arm-none-eabi/lib/armv7-m/crt0.o
 .bss           0x00000000        0x0 c:/siliconlabs/simplicitystudio/v4/developer/toolchains/gnu_arm/4.9_2015q3/bin/../lib/gcc/arm-none-eabi/4.9.3/../../../../arm-none-eabi/lib/armv7-m/crt0.o
 .ARM.extab     0x00000000        0x0 c:/siliconlabs/simplicitystudio/v4/developer/toolchains/gnu_arm/4.9_2015q3/bin/../lib/gcc/arm-none-eabi/4.9.3/../../../../arm-none-eabi/lib/armv7-m/crt0.o
 .data          0x00000000        0x0 ./CMSIS/EFM32GG/startup_efm32gg.o
 .bss           0x00000000        0x0 ./CMSIS/EFM32GG/startup_efm32gg.o
 .text          0x00000000        0x0 ./CMSIS/EFM32GG/system_efm32gg.o
 .data          0x00000000        0x0 ./CMSIS/EFM32GG/system_efm32gg.o
 .bss           0x00000000        0x0 ./CMSIS/EFM32GG/system_efm32gg.o
 .text.SystemHFXOClockSet
                0x00000000       0x2c ./CMSIS/EFM32GG/system_efm32gg.o
 .text.SystemLFXOClockSet
                0x00000000       0x2c ./CMSIS/EFM32GG/system_efm32gg.o
 .text          0x00000000        0x0 ./devices_src/rgb_led.o
 .data          0x00000000        0x0 ./devices_src/rgb_led.o
 .bss           0x00000000        0x0 ./devices_src/rgb_led.o
 .text.rgb_reinit
                0x00000000        0xc ./devices_src/rgb_led.o
 .text          0x00000000        0x0 ./devices_src/sd_card.o
 .data          0x00000000        0x0 ./devices_src/sd_card.o
 .bss           0x00000000        0x0 ./devices_src/sd_card.o
 .text.sd_card_specs
                0x00000000       0xd0 ./devices_src/sd_card.o
 .text          0x00000000        0x0 ./devices_src/tbr.o
 .data          0x00000000        0x0 ./devices_src/tbr.o
 .bss           0x00000000        0x0 ./devices_src/tbr.o
 .text.GPIO_PinOutClear
                0x00000000       0x58 ./devices_src/tbr.o
 .text.tbr_shutdown
                0x00000000       0x10 ./devices_src/tbr.o
 .text.tbr_recv_msg
                0x00000000       0x68 ./devices_src/tbr.o
 .text          0x00000000        0x0 ./devices_src/ublox_gps.o
 .data          0x00000000        0x0 ./devices_src/ublox_gps.o
 .bss           0x00000000        0x0 ./devices_src/ublox_gps.o
 .text.GPIO_PinOutClear
                0x00000000       0x58 ./devices_src/ublox_gps.o
 .rodata.cfg_msg_poll_nav
                0x00000000        0xa ./devices_src/ublox_gps.o
 .rodata.cfg_prt_uart
                0x00000000       0x1c ./devices_src/ublox_gps.o
 .text.fletcher16
                0x00000000       0x64 ./devices_src/ublox_gps.o
 .text.gps_off  0x00000000       0x10 ./devices_src/ublox_gps.o
 .text.gps_int_pin_toggle
                0x00000000       0x24 ./devices_src/ublox_gps.o
 .text          0x00000000        0x0 ./drivers_src/delay.o
 .data          0x00000000        0x0 ./drivers_src/delay.o
 .bss           0x00000000        0x0 ./drivers_src/delay.o
 .text          0x00000000        0x0 ./drivers_src/pwm.o
 .data          0x00000000        0x0 ./drivers_src/pwm.o
 .bss           0x00000000        0x0 ./drivers_src/pwm.o
 .text.TIMER_CompareBufSet
                0x00000000       0x28 ./drivers_src/pwm.o
 .text.TIMER_CompareSet
                0x00000000       0x28 ./drivers_src/pwm.o
 .text.pwm_reset
                0x00000000       0x14 ./drivers_src/pwm.o
 .text.pwm_generate_pulses
                0x00000000       0x60 ./drivers_src/pwm.o
 .text.pwm_continuous_mode
                0x00000000       0x1c ./drivers_src/pwm.o
 .text          0x00000000        0x0 ./drivers_src/rs232.o
 .data          0x00000000        0x0 ./drivers_src/rs232.o
 .bss           0x00000000        0x0 ./drivers_src/rs232.o
 .text.GPIO_PinOutClear
                0x00000000       0x58 ./drivers_src/rs232.o
 .text.rs232_disable
                0x00000000       0x14 ./drivers_src/rs232.o
 .text.rs232_transmit_char
                0x00000000       0x4c ./drivers_src/rs232.o
 .text.rs232_receive
                0x00000000       0x30 ./drivers_src/rs232.o
 .text.rs232_reset
                0x00000000       0x14 ./drivers_src/rs232.o
 .text.rs232_shutdown
                0x00000000       0x10 ./drivers_src/rs232.o
 .text          0x00000000        0x0 ./drivers_src/rs485.o
 .data          0x00000000        0x0 ./drivers_src/rs485.o
 .bss           0x00000000        0x0 ./drivers_src/rs485.o
 .text.rs485_disable
                0x00000000       0x14 ./drivers_src/rs485.o
 .text.rs485_reset
                0x00000000       0x14 ./drivers_src/rs485.o
 .text.rs485_transmit_char
                0x00000000       0x50 ./drivers_src/rs485.o
 .text          0x00000000        0x0 ./drivers_src/spi.o
 .data          0x00000000        0x0 ./drivers_src/spi.o
 .bss           0x00000000        0x0 ./drivers_src/spi.o
 .text.spi_reset
                0x00000000       0x2c ./drivers_src/spi.o
 .text          0x00000000        0x0 ./emlib/src/em_acmp.o
 .data          0x00000000        0x0 ./emlib/src/em_acmp.o
 .bss           0x00000000        0x0 ./emlib/src/em_acmp.o
 .text.BUS_RegBitWrite
                0x00000000       0x2c ./emlib/src/em_acmp.o
 .text.BUS_RegMaskedWrite
                0x00000000       0x28 ./emlib/src/em_acmp.o
 .text.ACMP_CapsenseInit
                0x00000000       0x8c ./emlib/src/em_acmp.o
 .text.ACMP_CapsenseChannelSet
                0x00000000       0x3c ./emlib/src/em_acmp.o
 .text.ACMP_Disable
                0x00000000       0x38 ./emlib/src/em_acmp.o
 .text.ACMP_Enable
                0x00000000       0x38 ./emlib/src/em_acmp.o
 .text.ACMP_Reset
                0x00000000       0x4c ./emlib/src/em_acmp.o
 .text.ACMP_GPIOSetup
                0x00000000       0x54 ./emlib/src/em_acmp.o
 .text.ACMP_ChannelSet
                0x00000000       0x4c ./emlib/src/em_acmp.o
 .text.ACMP_Init
                0x00000000       0xa0 ./emlib/src/em_acmp.o
 .debug_info    0x00000000      0x63e ./emlib/src/em_acmp.o
 .debug_abbrev  0x00000000      0x1b9 ./emlib/src/em_acmp.o
 .debug_loc     0x00000000      0x368 ./emlib/src/em_acmp.o
 .debug_aranges
                0x00000000       0x68 ./emlib/src/em_acmp.o
 .debug_ranges  0x00000000       0x58 ./emlib/src/em_acmp.o
 .debug_line    0x00000000      0x440 ./emlib/src/em_acmp.o
 .debug_str     0x00000000      0x65d ./emlib/src/em_acmp.o
 .comment       0x00000000       0x71 ./emlib/src/em_acmp.o
 .debug_frame   0x00000000      0x190 ./emlib/src/em_acmp.o
 .ARM.attributes
                0x00000000       0x33 ./emlib/src/em_acmp.o
 .text          0x00000000        0x0 ./emlib/src/em_adc.o
 .data          0x00000000        0x0 ./emlib/src/em_adc.o
 .bss           0x00000000        0x0 ./emlib/src/em_adc.o
 .text.ADC_LoadDevinfoCal
                0x00000000      0x13c ./emlib/src/em_adc.o
 .text.ADC_Init
                0x00000000       0x88 ./emlib/src/em_adc.o
 .text.ADC_InitScan
                0x00000000       0xa4 ./emlib/src/em_adc.o
 .text.ADC_InitSingle
                0x00000000       0x9c ./emlib/src/em_adc.o
 .text.ADC_PrescaleCalc
                0x00000000       0x64 ./emlib/src/em_adc.o
 .text.ADC_Reset
                0x00000000       0x54 ./emlib/src/em_adc.o
 .text.ADC_TimebaseCalc
                0x00000000       0x60 ./emlib/src/em_adc.o
 .debug_info    0x00000000      0xa78 ./emlib/src/em_adc.o
 .debug_abbrev  0x00000000      0x1ae ./emlib/src/em_adc.o
 .debug_loc     0x00000000      0x23c ./emlib/src/em_adc.o
 .debug_aranges
                0x00000000       0x50 ./emlib/src/em_adc.o
 .debug_ranges  0x00000000       0x40 ./emlib/src/em_adc.o
 .debug_line    0x00000000      0x401 ./emlib/src/em_adc.o
 .debug_str     0x00000000      0xba2 ./emlib/src/em_adc.o
 .comment       0x00000000       0x71 ./emlib/src/em_adc.o
 .debug_frame   0x00000000      0x110 ./emlib/src/em_adc.o
 .ARM.attributes
                0x00000000       0x33 ./emlib/src/em_adc.o
 .text          0x00000000        0x0 ./emlib/src/em_aes.o
 .data          0x00000000        0x0 ./emlib/src/em_aes.o
 .bss           0x00000000        0x0 ./emlib/src/em_aes.o
 .text.AES_IntClear
                0x00000000       0x1c ./emlib/src/em_aes.o
 .text.AES_CBC128
                0x00000000      0x1ec ./emlib/src/em_aes.o
 .text.AES_CBC256
                0x00000000      0x224 ./emlib/src/em_aes.o
 .text.AES_CFB128
                0x00000000      0x120 ./emlib/src/em_aes.o
 .text.AES_CFB256
                0x00000000      0x12c ./emlib/src/em_aes.o
 .text.AES_CTR128
                0x00000000       0xe4 ./emlib/src/em_aes.o
 .text.AES_CTR256
                0x00000000       0xec ./emlib/src/em_aes.o
 .text.AES_CTRUpdate32Bit
                0x00000000       0x30 ./emlib/src/em_aes.o
 .text.AES_DecryptKey128
                0x00000000       0x88 ./emlib/src/em_aes.o
 .text.AES_DecryptKey256
                0x00000000       0xc4 ./emlib/src/em_aes.o
 .text.AES_ECB128
                0x00000000       0xdc ./emlib/src/em_aes.o
 .text.AES_ECB256
                0x00000000       0xe8 ./emlib/src/em_aes.o
 .text.AES_OFB128
                0x00000000       0xd0 ./emlib/src/em_aes.o
 .text.AES_OFB256
                0x00000000      0x100 ./emlib/src/em_aes.o
 .debug_info    0x00000000     0x1112 ./emlib/src/em_aes.o
 .debug_abbrev  0x00000000      0x1f3 ./emlib/src/em_aes.o
 .debug_loc     0x00000000      0x4f2 ./emlib/src/em_aes.o
 .debug_aranges
                0x00000000       0x88 ./emlib/src/em_aes.o
 .debug_ranges  0x00000000       0x78 ./emlib/src/em_aes.o
 .debug_line    0x00000000      0xc51 ./emlib/src/em_aes.o
 .debug_str     0x00000000      0x36f ./emlib/src/em_aes.o
 .comment       0x00000000       0x71 ./emlib/src/em_aes.o
 .debug_frame   0x00000000      0x234 ./emlib/src/em_aes.o
 .ARM.attributes
                0x00000000       0x33 ./emlib/src/em_aes.o
 .text          0x00000000        0x0 ./emlib/src/em_assert.o
 .data          0x00000000        0x0 ./emlib/src/em_assert.o
 .bss           0x00000000        0x0 ./emlib/src/em_assert.o
 .debug_line    0x00000000        0x0 ./emlib/src/em_assert.o
 .debug_str     0x00000000      0x137 ./emlib/src/em_assert.o
 .comment       0x00000000       0x71 ./emlib/src/em_assert.o
 .ARM.attributes
                0x00000000       0x33 ./emlib/src/em_assert.o
 .text          0x00000000        0x0 ./emlib/src/em_burtc.o
 .data          0x00000000        0x0 ./emlib/src/em_burtc.o
 .bss           0x00000000        0x0 ./emlib/src/em_burtc.o
 .text.BURTC_CompareGet
                0x00000000       0x1c ./emlib/src/em_burtc.o
 .text.BURTC_CounterReset
                0x00000000       0x20 ./emlib/src/em_burtc.o
 .text.BURTC_ClockFreqGet
                0x00000000       0x7c ./emlib/src/em_burtc.o
 .text          0x00000000        0x0 ./emlib/src/em_can.o
 .data          0x00000000        0x0 ./emlib/src/em_can.o
 .bss           0x00000000        0x0 ./emlib/src/em_can.o
 .debug_info    0x00000000       0x97 ./emlib/src/em_can.o
 .debug_abbrev  0x00000000       0x49 ./emlib/src/em_can.o
 .debug_aranges
                0x00000000       0x18 ./emlib/src/em_can.o
 .debug_line    0x00000000      0x178 ./emlib/src/em_can.o
 .debug_str     0x00000000      0x1e6 ./emlib/src/em_can.o
 .comment       0x00000000       0x71 ./emlib/src/em_can.o
 .ARM.attributes
                0x00000000       0x33 ./emlib/src/em_can.o
 .text          0x00000000        0x0 ./emlib/src/em_cmu.o
 .data          0x00000000        0x0 ./emlib/src/em_cmu.o
 .bss           0x00000000        0x0 ./emlib/src/em_cmu.o
 .text.BUS_RegMaskedWrite
                0x00000000       0x28 ./emlib/src/em_cmu.o
 .text.CMU_Log2ToDiv
                0x00000000       0x1c ./emlib/src/em_cmu.o
 .text.CMU_AUXHFRCOBandGet
                0x00000000       0x20 ./emlib/src/em_cmu.o
 .text.CMU_AUXHFRCOBandSet
                0x00000000       0xb0 ./emlib/src/em_cmu.o
 .text.CMU_Calibrate
                0x00000000       0x88 ./emlib/src/em_cmu.o
 .text.CMU_CalibrateConfig
                0x00000000       0xd8 ./emlib/src/em_cmu.o
 .text.CMU_CalibrateCountGet
                0x00000000       0x38 ./emlib/src/em_cmu.o
 .text.CMU_ClockDivGet
                0x00000000      0x174 ./emlib/src/em_cmu.o
 .text.CMU_FreezeEnable
                0x00000000       0x38 ./emlib/src/em_cmu.o
 .text.CMU_HFRCOBandGet
                0x00000000       0x20 ./emlib/src/em_cmu.o
 .text.CMU_HFRCOStartupDelayGet
                0x00000000       0x1c ./emlib/src/em_cmu.o
 .text.CMU_HFRCOStartupDelaySet
                0x00000000       0x30 ./emlib/src/em_cmu.o
 .text.CMU_HFXOInit
                0x00000000       0x58 ./emlib/src/em_cmu.o
 .text.CMU_LCDClkFDIVGet
                0x00000000       0x1c ./emlib/src/em_cmu.o
 .text.CMU_LCDClkFDIVSet
                0x00000000       0x3c ./emlib/src/em_cmu.o
 .text.CMU_LFXOInit
                0x00000000       0x78 ./emlib/src/em_cmu.o
 .text.CMU_OscillatorTuningGet
                0x00000000       0x50 ./emlib/src/em_cmu.o
 .text.CMU_OscillatorTuningSet
                0x00000000       0x74 ./emlib/src/em_cmu.o
 .text.CMU_PCNTClockExternalGet
                0x00000000       0x60 ./emlib/src/em_cmu.o
 .text.CMU_PCNTClockExternalSet
                0x00000000       0x34 ./emlib/src/em_cmu.o
 .text          0x00000000        0x0 ./emlib/src/em_core.o
 .data          0x00000000        0x0 ./emlib/src/em_core.o
 .bss           0x00000000        0x0 ./emlib/src/em_core.o
 .text.NVIC_GetPriority
                0x00000000       0x50 ./emlib/src/em_core.o
 .text.CORE_CriticalDisableIrq
                0x00000000       0x10 ./emlib/src/em_core.o
 .text.CORE_CriticalEnableIrq
                0x00000000       0x10 ./emlib/src/em_core.o
 .text.CORE_EnterCritical
                0x00000000       0x20 ./emlib/src/em_core.o
 .text.CORE_ExitCritical
                0x00000000       0x1c ./emlib/src/em_core.o
 .text.CORE_YieldCritical
                0x00000000       0x24 ./emlib/src/em_core.o
 .text.CORE_AtomicDisableIrq
                0x00000000       0x10 ./emlib/src/em_core.o
 .text.CORE_AtomicEnableIrq
                0x00000000       0x10 ./emlib/src/em_core.o
 .text.CORE_YieldAtomic
                0x00000000       0x24 ./emlib/src/em_core.o
 .text.CORE_EnterNvicMask
                0x00000000       0x38 ./emlib/src/em_core.o
 .text.CORE_NvicDisableMask
                0x00000000       0x2c ./emlib/src/em_core.o
 .text.CORE_NvicEnableMask
                0x00000000       0x2c ./emlib/src/em_core.o
 .text.CORE_YieldNvicMask
                0x00000000       0x88 ./emlib/src/em_core.o
 .text.CORE_NvicMaskSetIRQ
                0x00000000       0x58 ./emlib/src/em_core.o
 .text.CORE_NvicMaskClearIRQ
                0x00000000       0x58 ./emlib/src/em_core.o
 .text.CORE_InIrqContext
                0x00000000       0x24 ./emlib/src/em_core.o
 .text.CORE_IrqIsBlocked
                0x00000000       0xac ./emlib/src/em_core.o
 .text.CORE_IrqIsDisabled
                0x00000000       0x28 ./emlib/src/em_core.o
 .text.CORE_GetNvicEnabledMask
                0x00000000       0x2c ./emlib/src/em_core.o
 .text.CORE_GetNvicMaskDisableState
                0x00000000       0x54 ./emlib/src/em_core.o
 .text.CORE_NvicIRQDisabled
                0x00000000       0x58 ./emlib/src/em_core.o
 .text.CORE_GetNvicRamTableHandler
                0x00000000       0x40 ./emlib/src/em_core.o
 .text.CORE_SetNvicRamTableHandler
                0x00000000       0x44 ./emlib/src/em_core.o
 .text.CORE_InitNvicVectorTable
                0x00000000       0xc8 ./emlib/src/em_core.o
 .text          0x00000000        0x0 ./emlib/src/em_cryotimer.o
 .data          0x00000000        0x0 ./emlib/src/em_cryotimer.o
 .bss           0x00000000        0x0 ./emlib/src/em_cryotimer.o
 .debug_info    0x00000000       0x90 ./emlib/src/em_cryotimer.o
 .debug_abbrev  0x00000000       0x49 ./emlib/src/em_cryotimer.o
 .debug_aranges
                0x00000000       0x18 ./emlib/src/em_cryotimer.o
 .debug_line    0x00000000      0x178 ./emlib/src/em_cryotimer.o
 .debug_str     0x00000000      0x1e6 ./emlib/src/em_cryotimer.o
 .comment       0x00000000       0x71 ./emlib/src/em_cryotimer.o
 .ARM.attributes
                0x00000000       0x33 ./emlib/src/em_cryotimer.o
 .text          0x00000000        0x0 ./emlib/src/em_crypto.o
 .data          0x00000000        0x0 ./emlib/src/em_crypto.o
 .bss           0x00000000        0x0 ./emlib/src/em_crypto.o
 .debug_info    0x00000000       0x90 ./emlib/src/em_crypto.o
 .debug_abbrev  0x00000000       0x49 ./emlib/src/em_crypto.o
 .debug_aranges
                0x00000000       0x18 ./emlib/src/em_crypto.o
 .debug_line    0x00000000      0x178 ./emlib/src/em_crypto.o
 .debug_str     0x00000000      0x1e3 ./emlib/src/em_crypto.o
 .comment       0x00000000       0x71 ./emlib/src/em_crypto.o
 .ARM.attributes
                0x00000000       0x33 ./emlib/src/em_crypto.o
 .text          0x00000000        0x0 ./emlib/src/em_csen.o
 .data          0x00000000        0x0 ./emlib/src/em_csen.o
 .bss           0x00000000        0x0 ./emlib/src/em_csen.o
 .debug_info    0x00000000       0x90 ./emlib/src/em_csen.o
 .debug_abbrev  0x00000000       0x49 ./emlib/src/em_csen.o
 .debug_aranges
                0x00000000       0x18 ./emlib/src/em_csen.o
 .debug_line    0x00000000      0x178 ./emlib/src/em_csen.o
 .debug_str     0x00000000      0x1e1 ./emlib/src/em_csen.o
 .comment       0x00000000       0x71 ./emlib/src/em_csen.o
 .ARM.attributes
                0x00000000       0x33 ./emlib/src/em_csen.o
 .text          0x00000000        0x0 ./emlib/src/em_dac.o
 .data          0x00000000        0x0 ./emlib/src/em_dac.o
 .bss           0x00000000        0x0 ./emlib/src/em_dac.o
 .text.DAC_Channel0OutputSet
                0x00000000       0x1c ./emlib/src/em_dac.o
 .text.DAC_Channel1OutputSet
                0x00000000       0x1c ./emlib/src/em_dac.o
 .text.BUS_RegBitWrite
                0x00000000       0x2c ./emlib/src/em_dac.o
 .text.DAC_Enable
                0x00000000       0x34 ./emlib/src/em_dac.o
 .text.DAC_Init
                0x00000000       0xd0 ./emlib/src/em_dac.o
 .text.DAC_InitChannel
                0x00000000       0x64 ./emlib/src/em_dac.o
 .text.DAC_ChannelOutputSet
                0x00000000       0x34 ./emlib/src/em_dac.o
 .text.DAC_PrescaleCalc
                0x00000000       0x64 ./emlib/src/em_dac.o
 .text.DAC_Reset
                0x00000000       0x44 ./emlib/src/em_dac.o
 .debug_info    0x00000000      0x8cf ./emlib/src/em_dac.o
 .debug_abbrev  0x00000000      0x1c2 ./emlib/src/em_dac.o
 .debug_loc     0x00000000      0x30c ./emlib/src/em_dac.o
 .debug_aranges
                0x00000000       0x60 ./emlib/src/em_dac.o
 .debug_ranges  0x00000000       0x50 ./emlib/src/em_dac.o
 .debug_line    0x00000000      0x3f0 ./emlib/src/em_dac.o
 .debug_str     0x00000000      0x877 ./emlib/src/em_dac.o
 .comment       0x00000000       0x71 ./emlib/src/em_dac.o
 .debug_frame   0x00000000      0x168 ./emlib/src/em_dac.o
 .ARM.attributes
                0x00000000       0x33 ./emlib/src/em_dac.o
 .text          0x00000000        0x0 ./emlib/src/em_dbg.o
 .data          0x00000000        0x0 ./emlib/src/em_dbg.o
 .bss           0x00000000        0x0 ./emlib/src/em_dbg.o
 .text.BUS_RegBitWrite
                0x00000000       0x2c ./emlib/src/em_dbg.o
 .text.GPIO_DbgSWOEnable
                0x00000000       0x20 ./emlib/src/em_dbg.o
 .text.DBG_SWOEnable
                0x00000000       0xa0 ./emlib/src/em_dbg.o
 .debug_info    0x00000000      0x42d ./emlib/src/em_dbg.o
 .debug_abbrev  0x00000000      0x161 ./emlib/src/em_dbg.o
 .debug_loc     0x00000000       0xfc ./emlib/src/em_dbg.o
 .debug_aranges
                0x00000000       0x30 ./emlib/src/em_dbg.o
 .debug_ranges  0x00000000       0x20 ./emlib/src/em_dbg.o
 .debug_line    0x00000000      0x3a8 ./emlib/src/em_dbg.o
 .debug_str     0x00000000      0x502 ./emlib/src/em_dbg.o
 .comment       0x00000000       0x71 ./emlib/src/em_dbg.o
 .debug_frame   0x00000000       0x80 ./emlib/src/em_dbg.o
 .ARM.attributes
                0x00000000       0x33 ./emlib/src/em_dbg.o
 .text          0x00000000        0x0 ./emlib/src/em_dma.o
 .data          0x00000000        0x0 ./emlib/src/em_dma.o
 .bss           0x00000000        0x0 ./emlib/src/em_dma.o
 .text.NVIC_EnableIRQ
                0x00000000       0x30 ./emlib/src/em_dma.o
 .text.NVIC_DisableIRQ
                0x00000000       0x34 ./emlib/src/em_dma.o
 .text.NVIC_ClearPendingIRQ
                0x00000000       0x34 ./emlib/src/em_dma.o
 .text.BUS_RegBitWrite
                0x00000000       0x2c ./emlib/src/em_dma.o
 .text.DMA_Prepare
                0x00000000      0x114 ./emlib/src/em_dma.o
 .text.DMA_ActivateAuto
                0x00000000       0x48 ./emlib/src/em_dma.o
 .text.DMA_ActivateBasic
                0x00000000       0x44 ./emlib/src/em_dma.o
 .text.DMA_ActivatePingPong
                0x00000000       0x5c ./emlib/src/em_dma.o
 .text.DMA_ActivateScatterGather
                0x00000000      0x14c ./emlib/src/em_dma.o
 .text.DMA_CfgChannel
                0x00000000       0x90 ./emlib/src/em_dma.o
 .text.DMA_CfgDescr
                0x00000000       0x70 ./emlib/src/em_dma.o
 .text.DMA_CfgLoop
                0x00000000       0x58 ./emlib/src/em_dma.o
 .text.DMA_CfgRect
                0x00000000       0x38 ./emlib/src/em_dma.o
 .text.DMA_CfgDescrScatterGather
                0x00000000       0xd4 ./emlib/src/em_dma.o
 .text.DMA_ChannelEnable
                0x00000000       0x3c ./emlib/src/em_dma.o
 .text.DMA_ChannelEnabled
                0x00000000       0x30 ./emlib/src/em_dma.o
 .text.DMA_ChannelRequestEnable
                0x00000000       0x38 ./emlib/src/em_dma.o
 .text.DMA_Init
                0x00000000       0x54 ./emlib/src/em_dma.o
 .text.DMA_RefreshPingPong
                0x00000000       0xf8 ./emlib/src/em_dma.o
 .text.DMA_Reset
                0x00000000       0x88 ./emlib/src/em_dma.o
 .text          0x00000000        0x0 ./emlib/src/em_ebi.o
 .data          0x00000000        0x0 ./emlib/src/em_ebi.o
 .bss           0x00000000        0x0 ./emlib/src/em_ebi.o
 .debug_info    0x00000000       0x90 ./emlib/src/em_ebi.o
 .debug_abbrev  0x00000000       0x49 ./emlib/src/em_ebi.o
 .debug_aranges
                0x00000000       0x18 ./emlib/src/em_ebi.o
 .debug_line    0x00000000      0x178 ./emlib/src/em_ebi.o
 .debug_str     0x00000000      0x1e0 ./emlib/src/em_ebi.o
 .comment       0x00000000       0x71 ./emlib/src/em_ebi.o
 .ARM.attributes
                0x00000000       0x33 ./emlib/src/em_ebi.o
 .text          0x00000000        0x0 ./emlib/src/em_emu.o
 .data          0x00000000        0x0 ./emlib/src/em_emu.o
 .bss           0x00000000        0x0 ./emlib/src/em_emu.o
 .text.SystemCoreClockUpdate
                0x00000000        0xc ./emlib/src/em_emu.o
 .text.BUS_RegBitWrite
                0x00000000       0x2c ./emlib/src/em_emu.o
 .text.EMU_BUPinEnable
                0x00000000       0x20 ./emlib/src/em_emu.o
 .text.EMU_Unlock
                0x00000000       0x18 ./emlib/src/em_emu.o
 .text.CMU_Lock
                0x00000000       0x18 ./emlib/src/em_emu.o
 .text.CMU_Unlock
                0x00000000       0x1c ./emlib/src/em_emu.o
 .text.emState  0x00000000       0xd0 ./emlib/src/em_emu.o
 .text.getErrataFixEmuE107En
                0x00000000       0x64 ./emlib/src/em_emu.o
 .text.EMU_EnterEM2
                0x00000000       0x8c ./emlib/src/em_emu.o
 .text.EMU_EnterEM3
                0x00000000       0xb4 ./emlib/src/em_emu.o
 .text.EMU_Save
                0x00000000        0xc ./emlib/src/em_emu.o
 .text.EMU_Restore
                0x00000000        0xc ./emlib/src/em_emu.o
 .text.EMU_EnterEM4
                0x00000000       0x50 ./emlib/src/em_emu.o
 .text.EMU_MemPwrDown
                0x00000000       0x20 ./emlib/src/em_emu.o
 .text.EMU_RamPowerDown
                0x00000000       0x7c ./emlib/src/em_emu.o
 .text.EMU_UpdateOscConfig
                0x00000000        0xc ./emlib/src/em_emu.o
 .text.EMU_EM23Init
                0x00000000       0x34 ./emlib/src/em_emu.o
 .text.EMU_EM4Init
                0x00000000       0x50 ./emlib/src/em_emu.o
 .text.EMU_BUPDInit
                0x00000000       0xd4 ./emlib/src/em_emu.o
 .text.EMU_BUThresholdSet
                0x00000000       0x4c ./emlib/src/em_emu.o
 .text.EMU_BUThresRangeSet
                0x00000000       0x50 ./emlib/src/em_emu.o
 .bss.cmuStatus.5310
                0x00000000        0x4 ./emlib/src/em_emu.o
 .bss.hfClock.5311
                0x00000000        0x1 ./emlib/src/em_emu.o
 .debug_info    0x00000000     0x1039 ./emlib/src/em_emu.o
 .debug_abbrev  0x00000000      0x277 ./emlib/src/em_emu.o
 .debug_loc     0x00000000      0x63c ./emlib/src/em_emu.o
 .debug_aranges
                0x00000000       0xc0 ./emlib/src/em_emu.o
 .debug_ranges  0x00000000       0xb0 ./emlib/src/em_emu.o
 .debug_line    0x00000000      0x5d3 ./emlib/src/em_emu.o
 .debug_str     0x00000000      0xbac ./emlib/src/em_emu.o
 .comment       0x00000000       0x71 ./emlib/src/em_emu.o
 .debug_frame   0x00000000      0x2f8 ./emlib/src/em_emu.o
 .ARM.attributes
                0x00000000       0x33 ./emlib/src/em_emu.o
 .text          0x00000000        0x0 ./emlib/src/em_gpcrc.o
 .data          0x00000000        0x0 ./emlib/src/em_gpcrc.o
 .bss           0x00000000        0x0 ./emlib/src/em_gpcrc.o
 .debug_info    0x00000000       0x90 ./emlib/src/em_gpcrc.o
 .debug_abbrev  0x00000000       0x49 ./emlib/src/em_gpcrc.o
 .debug_aranges
                0x00000000       0x18 ./emlib/src/em_gpcrc.o
 .debug_line    0x00000000      0x178 ./emlib/src/em_gpcrc.o
 .debug_str     0x00000000      0x1e2 ./emlib/src/em_gpcrc.o
 .comment       0x00000000       0x71 ./emlib/src/em_gpcrc.o
 .ARM.attributes
                0x00000000       0x33 ./emlib/src/em_gpcrc.o
 .text          0x00000000        0x0 ./emlib/src/em_gpio.o
 .data          0x00000000        0x0 ./emlib/src/em_gpio.o
 .bss           0x00000000        0x0 ./emlib/src/em_gpio.o
 .text.GPIO_EM4SetPinRetention
                0x00000000       0x40 ./emlib/src/em_gpio.o
 .text.GPIO_DbgLocationSet
                0x00000000       0x2c ./emlib/src/em_gpio.o
 .text.GPIO_PinModeGet
                0x00000000       0x8c ./emlib/src/em_gpio.o
 .text.GPIO_EM4EnablePinWakeup
                0x00000000       0x58 ./emlib/src/em_gpio.o
 .text          0x00000000        0x0 ./emlib/src/em_i2c.o
 .data          0x00000000        0x0 ./emlib/src/em_i2c.o
 .bss           0x00000000        0x0 ./emlib/src/em_i2c.o
 .text.BUS_RegBitWrite
                0x00000000       0x2c ./emlib/src/em_i2c.o
 .text.BUS_RegMaskedWrite
                0x00000000       0x28 ./emlib/src/em_i2c.o
 .rodata.i2cNSum
                0x00000000        0x4 ./emlib/src/em_i2c.o
 .bss.i2cTransfer
                0x00000000       0x18 ./emlib/src/em_i2c.o
 .text.I2C_BusFreqGet
                0x00000000       0x44 ./emlib/src/em_i2c.o
 .text.I2C_BusFreqSet
                0x00000000       0xfc ./emlib/src/em_i2c.o
 .text.I2C_Enable
                0x00000000       0x3c ./emlib/src/em_i2c.o
 .text.I2C_Init
                0x00000000       0x78 ./emlib/src/em_i2c.o
 .text.I2C_Reset
                0x00000000       0x3c ./emlib/src/em_i2c.o
 .text.I2C_Transfer
                0x00000000      0x44c ./emlib/src/em_i2c.o
 .text.I2C_TransferInit
                0x00000000       0xe8 ./emlib/src/em_i2c.o
 .debug_info    0x00000000      0x83f ./emlib/src/em_i2c.o
 .debug_abbrev  0x00000000      0x257 ./emlib/src/em_i2c.o
 .debug_loc     0x00000000      0x300 ./emlib/src/em_i2c.o
 .debug_aranges
                0x00000000       0x60 ./emlib/src/em_i2c.o
 .debug_ranges  0x00000000       0x50 ./emlib/src/em_i2c.o
 .debug_line    0x00000000      0x4c6 ./emlib/src/em_i2c.o
 .debug_str     0x00000000      0x7c6 ./emlib/src/em_i2c.o
 .comment       0x00000000       0x71 ./emlib/src/em_i2c.o
 .debug_frame   0x00000000      0x164 ./emlib/src/em_i2c.o
 .ARM.attributes
                0x00000000       0x33 ./emlib/src/em_i2c.o
 .text          0x00000000        0x0 ./emlib/src/em_idac.o
 .data          0x00000000        0x0 ./emlib/src/em_idac.o
 .bss           0x00000000        0x0 ./emlib/src/em_idac.o
 .debug_info    0x00000000       0x90 ./emlib/src/em_idac.o
 .debug_abbrev  0x00000000       0x49 ./emlib/src/em_idac.o
 .debug_aranges
                0x00000000       0x18 ./emlib/src/em_idac.o
 .debug_line    0x00000000      0x178 ./emlib/src/em_idac.o
 .debug_str     0x00000000      0x1e1 ./emlib/src/em_idac.o
 .comment       0x00000000       0x71 ./emlib/src/em_idac.o
 .ARM.attributes
                0x00000000       0x33 ./emlib/src/em_idac.o
 .text          0x00000000        0x0 ./emlib/src/em_int.o
 .data          0x00000000        0x0 ./emlib/src/em_int.o
 .bss           0x00000000        0x0 ./emlib/src/em_int.o
 .bss.INT_LockCnt
                0x00000000        0x4 ./emlib/src/em_int.o
 .debug_info    0x00000000       0xb8 ./emlib/src/em_int.o
 .debug_abbrev  0x00000000       0x5a ./emlib/src/em_int.o
 .debug_aranges
                0x00000000       0x18 ./emlib/src/em_int.o
 .debug_line    0x00000000      0x1de ./emlib/src/em_int.o
 .debug_str     0x00000000      0x200 ./emlib/src/em_int.o
 .comment       0x00000000       0x71 ./emlib/src/em_int.o
 .ARM.attributes
                0x00000000       0x33 ./emlib/src/em_int.o
 .text          0x00000000        0x0 ./emlib/src/em_lcd.o
 .data          0x00000000        0x0 ./emlib/src/em_lcd.o
 .bss           0x00000000        0x0 ./emlib/src/em_lcd.o
 .text.LCD_Enable
                0x00000000       0x38 ./emlib/src/em_lcd.o
 .text.LCD_AnimEnable
                0x00000000       0x38 ./emlib/src/em_lcd.o
 .text.LCD_FrameCountEnable
                0x00000000       0x38 ./emlib/src/em_lcd.o
 .text.BUS_RegBitWrite
                0x00000000       0x2c ./emlib/src/em_lcd.o
 .text.LCD_Init
                0x00000000       0x78 ./emlib/src/em_lcd.o
 .text.LCD_VLCDSelect
                0x00000000       0x44 ./emlib/src/em_lcd.o
 .text.LCD_UpdateCtrl
                0x00000000       0x28 ./emlib/src/em_lcd.o
 .text.LCD_FrameCountInit
                0x00000000       0x48 ./emlib/src/em_lcd.o
 .text.LCD_AnimInit
                0x00000000       0x88 ./emlib/src/em_lcd.o
 .text.LCD_SegmentRangeEnable
                0x00000000       0x40 ./emlib/src/em_lcd.o
 .text.LCD_SegmentSet
                0x00000000      0x1e4 ./emlib/src/em_lcd.o
 .text.LCD_SegmentSetLow
                0x00000000      0x17c ./emlib/src/em_lcd.o
 .text.LCD_SegmentSetHigh
                0x00000000      0x17c ./emlib/src/em_lcd.o
 .text.LCD_ContrastSet
                0x00000000       0x28 ./emlib/src/em_lcd.o
 .text.LCD_VBoostSet
                0x00000000       0x28 ./emlib/src/em_lcd.o
 .text.LCD_BiasSegmentSet
                0x00000000      0x104 ./emlib/src/em_lcd.o
 .text.LCD_BiasComSet
                0x00000000       0x40 ./emlib/src/em_lcd.o
 .debug_info    0x00000000      0xa36 ./emlib/src/em_lcd.o
 .debug_abbrev  0x00000000      0x18a ./emlib/src/em_lcd.o
 .debug_loc     0x00000000      0x5ec ./emlib/src/em_lcd.o
 .debug_aranges
                0x00000000       0xa0 ./emlib/src/em_lcd.o
 .debug_ranges  0x00000000       0x90 ./emlib/src/em_lcd.o
 .debug_line    0x00000000      0x501 ./emlib/src/em_lcd.o
 .debug_str     0x00000000      0x8f9 ./emlib/src/em_lcd.o
 .comment       0x00000000       0x71 ./emlib/src/em_lcd.o
 .debug_frame   0x00000000      0x2a8 ./emlib/src/em_lcd.o
 .ARM.attributes
                0x00000000       0x33 ./emlib/src/em_lcd.o
 .text          0x00000000        0x0 ./emlib/src/em_ldma.o
 .data          0x00000000        0x0 ./emlib/src/em_ldma.o
 .bss           0x00000000        0x0 ./emlib/src/em_ldma.o
 .debug_info    0x00000000       0x90 ./emlib/src/em_ldma.o
 .debug_abbrev  0x00000000       0x49 ./emlib/src/em_ldma.o
 .debug_aranges
                0x00000000       0x18 ./emlib/src/em_ldma.o
 .debug_line    0x00000000      0x178 ./emlib/src/em_ldma.o
 .debug_str     0x00000000      0x1e1 ./emlib/src/em_ldma.o
 .comment       0x00000000       0x71 ./emlib/src/em_ldma.o
 .ARM.attributes
                0x00000000       0x33 ./emlib/src/em_ldma.o
 .text          0x00000000        0x0 ./emlib/src/em_lesense.o
 .data          0x00000000        0x0 ./emlib/src/em_lesense.o
 .bss           0x00000000        0x0 ./emlib/src/em_lesense.o
 .text.BUS_RegBitWrite
                0x00000000       0x2c ./emlib/src/em_lesense.o
 .text.LESENSE_Init
                0x00000000      0x168 ./emlib/src/em_lesense.o
 .text.LESENSE_ScanFreqSet
                0x00000000       0xbc ./emlib/src/em_lesense.o
 .text.LESENSE_ScanModeSet
                0x00000000       0x3c ./emlib/src/em_lesense.o
 .text.LESENSE_StartDelaySet
                0x00000000       0x34 ./emlib/src/em_lesense.o
 .text.LESENSE_ClkDivSet
                0x00000000       0x60 ./emlib/src/em_lesense.o
 .text.LESENSE_ChannelAllConfig
                0x00000000       0x30 ./emlib/src/em_lesense.o
 .text.LESENSE_ChannelConfig
                0x00000000      0x14c ./emlib/src/em_lesense.o
 .text.LESENSE_AltExConfig
                0x00000000       0xec ./emlib/src/em_lesense.o
 .text.LESENSE_ChannelEnable
                0x00000000       0x3c ./emlib/src/em_lesense.o
 .text.LESENSE_ChannelEnableMask
                0x00000000       0x2c ./emlib/src/em_lesense.o
 .text.LESENSE_ChannelTimingSet
                0x00000000       0x44 ./emlib/src/em_lesense.o
 .text.LESENSE_ChannelThresSet
                0x00000000       0x78 ./emlib/src/em_lesense.o
 .text.LESENSE_DecoderStateAllConfig
                0x00000000       0x38 ./emlib/src/em_lesense.o
 .text.LESENSE_DecoderStateConfig
                0x00000000       0x80 ./emlib/src/em_lesense.o
 .text.LESENSE_DecoderStateSet
                0x00000000       0x20 ./emlib/src/em_lesense.o
 .text.LESENSE_DecoderStateGet
                0x00000000       0x1c ./emlib/src/em_lesense.o
 .text.LESENSE_ScanStart
                0x00000000       0x34 ./emlib/src/em_lesense.o
 .text.LESENSE_ScanStop
                0x00000000       0x34 ./emlib/src/em_lesense.o
 .text.LESENSE_DecoderStart
                0x00000000       0x34 ./emlib/src/em_lesense.o
 .text.LESENSE_ResultBufferClear
                0x00000000       0x34 ./emlib/src/em_lesense.o
 .text.LESENSE_Reset
                0x00000000       0xec ./emlib/src/em_lesense.o
 .debug_info    0x00000000     0x13eb ./emlib/src/em_lesense.o
 .debug_abbrev  0x00000000      0x22e ./emlib/src/em_lesense.o
 .debug_loc     0x00000000      0x710 ./emlib/src/em_lesense.o
 .debug_aranges
                0x00000000       0xc8 ./emlib/src/em_lesense.o
 .debug_ranges  0x00000000       0xb8 ./emlib/src/em_lesense.o
 .debug_line    0x00000000      0x6e1 ./emlib/src/em_lesense.o
 .debug_str     0x00000000     0x1581 ./emlib/src/em_lesense.o
 .comment       0x00000000       0x71 ./emlib/src/em_lesense.o
 .debug_frame   0x00000000      0x33c ./emlib/src/em_lesense.o
 .ARM.attributes
                0x00000000       0x33 ./emlib/src/em_lesense.o
 .text          0x00000000        0x0 ./emlib/src/em_letimer.o
 .data          0x00000000        0x0 ./emlib/src/em_letimer.o
 .bss           0x00000000        0x0 ./emlib/src/em_letimer.o
 .text.LETIMER_CompareGet
                0x00000000       0x50 ./emlib/src/em_letimer.o
 .text.LETIMER_CompareSet
                0x00000000       0x58 ./emlib/src/em_letimer.o
 .text.LETIMER_RepeatGet
                0x00000000       0x50 ./emlib/src/em_letimer.o
 .text.LETIMER_RepeatSet
                0x00000000       0x58 ./emlib/src/em_letimer.o
 .text          0x00000000        0x0 ./emlib/src/em_leuart.o
 .data          0x00000000        0x0 ./emlib/src/em_leuart.o
 .bss           0x00000000        0x0 ./emlib/src/em_leuart.o
 .text.LEUART_BaudrateCalc
                0x00000000       0x5c ./emlib/src/em_leuart.o
 .text.LEUART_BaudrateGet
                0x00000000       0x58 ./emlib/src/em_leuart.o
 .text.LEUART_RxExt
                0x00000000       0x28 ./emlib/src/em_leuart.o
 .text.LEUART_TxExt
                0x00000000       0x30 ./emlib/src/em_leuart.o
 .text.LEUART_TxDmaInEM2Enable
                0x00000000       0x3c ./emlib/src/em_leuart.o
 .text.LEUART_RxDmaInEM2Enable
                0x00000000       0x3c ./emlib/src/em_leuart.o
 .text          0x00000000        0x0 ./emlib/src/em_mpu.o
 .data          0x00000000        0x0 ./emlib/src/em_mpu.o
 .bss           0x00000000        0x0 ./emlib/src/em_mpu.o
 .text.MPU_ConfigureRegion
                0x00000000       0x88 ./emlib/src/em_mpu.o
 .debug_info    0x00000000      0x36a ./emlib/src/em_mpu.o
 .debug_abbrev  0x00000000      0x101 ./emlib/src/em_mpu.o
 .debug_loc     0x00000000       0x5c ./emlib/src/em_mpu.o
 .debug_aranges
                0x00000000       0x20 ./emlib/src/em_mpu.o
 .debug_ranges  0x00000000       0x10 ./emlib/src/em_mpu.o
 .debug_line    0x00000000      0x269 ./emlib/src/em_mpu.o
 .debug_str     0x00000000      0x574 ./emlib/src/em_mpu.o
 .comment       0x00000000       0x71 ./emlib/src/em_mpu.o
 .debug_frame   0x00000000       0x38 ./emlib/src/em_mpu.o
 .ARM.attributes
                0x00000000       0x33 ./emlib/src/em_mpu.o
 .text          0x00000000        0x0 ./emlib/src/em_msc.o
 .data          0x00000000        0x0 ./emlib/src/em_msc.o
 .bss           0x00000000        0x0 ./emlib/src/em_msc.o
 .ram           0x00000000      0x4e8 ./emlib/src/em_msc.o
 .text.MSC_Init
                0x00000000       0xb8 ./emlib/src/em_msc.o
 .text.MSC_Deinit
                0x00000000       0x24 ./emlib/src/em_msc.o
 .text.MSC_ExecConfigSet
                0x00000000       0xd8 ./emlib/src/em_msc.o
 .debug_info    0x00000000      0x7de ./emlib/src/em_msc.o
 .debug_abbrev  0x00000000      0x210 ./emlib/src/em_msc.o
 .debug_loc     0x00000000      0x370 ./emlib/src/em_msc.o
 .debug_aranges
                0x00000000       0x70 ./emlib/src/em_msc.o
 .debug_ranges  0x00000000       0x60 ./emlib/src/em_msc.o
 .debug_line    0x00000000      0x4f6 ./emlib/src/em_msc.o
 .debug_str     0x00000000      0x71c ./emlib/src/em_msc.o
 .comment       0x00000000       0x71 ./emlib/src/em_msc.o
 .debug_frame   0x00000000      0x19c ./emlib/src/em_msc.o
 .ARM.attributes
                0x00000000       0x33 ./emlib/src/em_msc.o
 .text          0x00000000        0x0 ./emlib/src/em_opamp.o
 .data          0x00000000        0x0 ./emlib/src/em_opamp.o
 .bss           0x00000000        0x0 ./emlib/src/em_opamp.o
 .text.OPAMP_Disable
                0x00000000       0x64 ./emlib/src/em_opamp.o
 .text.OPAMP_Enable
                0x00000000      0x3b4 ./emlib/src/em_opamp.o
 .debug_info    0x00000000      0x502 ./emlib/src/em_opamp.o
 .debug_abbrev  0x00000000      0x149 ./emlib/src/em_opamp.o
 .debug_loc     0x00000000       0xac ./emlib/src/em_opamp.o
 .debug_aranges
                0x00000000       0x28 ./emlib/src/em_opamp.o
 .debug_ranges  0x00000000       0x18 ./emlib/src/em_opamp.o
 .debug_line    0x00000000      0x5aa ./emlib/src/em_opamp.o
 .debug_str     0x00000000      0x59c ./emlib/src/em_opamp.o
 .comment       0x00000000       0x71 ./emlib/src/em_opamp.o
 .debug_frame   0x00000000       0x60 ./emlib/src/em_opamp.o
 .ARM.attributes
                0x00000000       0x33 ./emlib/src/em_opamp.o
 .text          0x00000000        0x0 ./emlib/src/em_pcnt.o
 .data          0x00000000        0x0 ./emlib/src/em_pcnt.o
 .bss           0x00000000        0x0 ./emlib/src/em_pcnt.o
 .text.BUS_RegBitWrite
                0x00000000       0x2c ./emlib/src/em_pcnt.o
 .text.PCNT_Map
                0x00000000       0x20 ./emlib/src/em_pcnt.o
 .text.PCNT_Sync
                0x00000000       0x30 ./emlib/src/em_pcnt.o
 .text.PCNT_CounterReset
                0x00000000       0x4c ./emlib/src/em_pcnt.o
 .text.PCNT_CounterTopSet
                0x00000000       0xc0 ./emlib/src/em_pcnt.o
 .text.PCNT_Enable
                0x00000000       0x58 ./emlib/src/em_pcnt.o
 .text.PCNT_PRSInputEnable
                0x00000000       0x70 ./emlib/src/em_pcnt.o
 .text.PCNT_FreezeEnable
                0x00000000       0x5c ./emlib/src/em_pcnt.o
 .text.PCNT_Init
                0x00000000      0x1d8 ./emlib/src/em_pcnt.o
 .text.PCNT_Reset
                0x00000000       0x80 ./emlib/src/em_pcnt.o
 .text.PCNT_TopBufferSet
                0x00000000       0x44 ./emlib/src/em_pcnt.o
 .text.PCNT_TopSet
                0x00000000       0x54 ./emlib/src/em_pcnt.o
 .debug_info    0x00000000      0x688 ./emlib/src/em_pcnt.o
 .debug_abbrev  0x00000000      0x1a4 ./emlib/src/em_pcnt.o
 .debug_loc     0x00000000      0x3f0 ./emlib/src/em_pcnt.o
 .debug_aranges
                0x00000000       0x78 ./emlib/src/em_pcnt.o
 .debug_ranges  0x00000000       0x68 ./emlib/src/em_pcnt.o
 .debug_line    0x00000000      0x4df ./emlib/src/em_pcnt.o
 .debug_str     0x00000000      0x525 ./emlib/src/em_pcnt.o
 .comment       0x00000000       0x71 ./emlib/src/em_pcnt.o
 .debug_frame   0x00000000      0x1d0 ./emlib/src/em_pcnt.o
 .ARM.attributes
                0x00000000       0x33 ./emlib/src/em_pcnt.o
 .text          0x00000000        0x0 ./emlib/src/em_prs.o
 .data          0x00000000        0x0 ./emlib/src/em_prs.o
 .bss           0x00000000        0x0 ./emlib/src/em_prs.o
 .text.PRS_SourceSignalSet
                0x00000000       0x38 ./emlib/src/em_prs.o
 .text.PRS_SourceAsyncSignalSet
                0x00000000       0x38 ./emlib/src/em_prs.o
 .debug_info    0x00000000      0x224 ./emlib/src/em_prs.o
 .debug_abbrev  0x00000000      0x103 ./emlib/src/em_prs.o
 .debug_loc     0x00000000       0xb8 ./emlib/src/em_prs.o
 .debug_aranges
                0x00000000       0x28 ./emlib/src/em_prs.o
 .debug_ranges  0x00000000       0x18 ./emlib/src/em_prs.o
 .debug_line    0x00000000      0x30b ./emlib/src/em_prs.o
 .debug_str     0x00000000      0x2b2 ./emlib/src/em_prs.o
 .comment       0x00000000       0x71 ./emlib/src/em_prs.o
 .debug_frame   0x00000000       0x60 ./emlib/src/em_prs.o
 .ARM.attributes
                0x00000000       0x33 ./emlib/src/em_prs.o
 .text          0x00000000        0x0 ./emlib/src/em_qspi.o
 .data          0x00000000        0x0 ./emlib/src/em_qspi.o
 .bss           0x00000000        0x0 ./emlib/src/em_qspi.o
 .debug_info    0x00000000       0x90 ./emlib/src/em_qspi.o
 .debug_abbrev  0x00000000       0x49 ./emlib/src/em_qspi.o
 .debug_aranges
                0x00000000       0x18 ./emlib/src/em_qspi.o
 .debug_line    0x00000000      0x178 ./emlib/src/em_qspi.o
 .debug_str     0x00000000      0x1e1 ./emlib/src/em_qspi.o
 .comment       0x00000000       0x71 ./emlib/src/em_qspi.o
 .ARM.attributes
                0x00000000       0x33 ./emlib/src/em_qspi.o
 .text          0x00000000        0x0 ./emlib/src/em_rmu.o
 .data          0x00000000        0x0 ./emlib/src/em_rmu.o
 .bss           0x00000000        0x0 ./emlib/src/em_rmu.o
 .text.EMU_Lock
                0x00000000       0x18 ./emlib/src/em_rmu.o
 .text.EMU_Unlock
                0x00000000       0x18 ./emlib/src/em_rmu.o
 .rodata.resetCauseMasks
                0x00000000       0x80 ./emlib/src/em_rmu.o
 .text.RMU_ResetCauseClear
                0x00000000       0x50 ./emlib/src/em_rmu.o
 .text.RMU_ResetCauseGet
                0x00000000       0x6c ./emlib/src/em_rmu.o
 .text          0x00000000        0x0 ./emlib/src/em_rtc.o
 .data          0x00000000        0x0 ./emlib/src/em_rtc.o
 .bss           0x00000000        0x0 ./emlib/src/em_rtc.o
 .text.RTC_CompareGet
                0x00000000       0x3c ./emlib/src/em_rtc.o
 .text.RTC_FreezeEnable
                0x00000000       0x2c ./emlib/src/em_rtc.o
 .text.RTC_Reset
                0x00000000       0x34 ./emlib/src/em_rtc.o
 .text.RTC_CounterReset
                0x00000000       0x14 ./emlib/src/em_rtc.o
 .text          0x00000000        0x0 ./emlib/src/em_rtcc.o
 .data          0x00000000        0x0 ./emlib/src/em_rtcc.o
 .bss           0x00000000        0x0 ./emlib/src/em_rtcc.o
 .debug_info    0x00000000       0x90 ./emlib/src/em_rtcc.o
 .debug_abbrev  0x00000000       0x49 ./emlib/src/em_rtcc.o
 .debug_aranges
                0x00000000       0x18 ./emlib/src/em_rtcc.o
 .debug_line    0x00000000      0x178 ./emlib/src/em_rtcc.o
 .debug_str     0x00000000      0x1e1 ./emlib/src/em_rtcc.o
 .comment       0x00000000       0x71 ./emlib/src/em_rtcc.o
 .ARM.attributes
                0x00000000       0x33 ./emlib/src/em_rtcc.o
 .text          0x00000000        0x0 ./emlib/src/em_system.o
 .data          0x00000000        0x0 ./emlib/src/em_system.o
 .bss           0x00000000        0x0 ./emlib/src/em_system.o
 .text.SYSTEM_GetCalibrationValue
                0x00000000       0x5c ./emlib/src/em_system.o
 .text          0x00000000        0x0 ./emlib/src/em_timer.o
 .data          0x00000000        0x0 ./emlib/src/em_timer.o
 .bss           0x00000000        0x0 ./emlib/src/em_timer.o
 .text.TIMER_EnableDTI
                0x00000000       0x38 ./emlib/src/em_timer.o
 .text.TIMER_GetDTIFault
                0x00000000       0x1c ./emlib/src/em_timer.o
 .text.TIMER_ClearDTIFault
                0x00000000       0x1c ./emlib/src/em_timer.o
 .text.TIMER_InitCC
                0x00000000       0x9c ./emlib/src/em_timer.o
 .text.TIMER_InitDTI
                0x00000000      0x104 ./emlib/src/em_timer.o
 .text.TIMER_Reset
                0x00000000       0xa8 ./emlib/src/em_timer.o
 .text          0x00000000        0x0 ./emlib/src/em_usart.o
 .data          0x00000000        0x0 ./emlib/src/em_usart.o
 .bss           0x00000000        0x0 ./emlib/src/em_usart.o
 .text.USART_BaudrateCalc
                0x00000000      0x124 ./emlib/src/em_usart.o
 .text.USART_BaudrateGet
                0x00000000       0x50 ./emlib/src/em_usart.o
 .text.USARTn_InitIrDA
                0x00000000       0x70 ./emlib/src/em_usart.o
 .text.USART_InitI2s
                0x00000000       0x94 ./emlib/src/em_usart.o
 .text.USART_InitPrsTrigger
                0x00000000       0x60 ./emlib/src/em_usart.o
 .text.USART_RxDouble
                0x00000000       0x28 ./emlib/src/em_usart.o
 .text.USART_RxDoubleExt
                0x00000000       0x28 ./emlib/src/em_usart.o
 .text.USART_RxExt
                0x00000000       0x28 ./emlib/src/em_usart.o
 .text.USART_TxDouble
                0x00000000       0x2c ./emlib/src/em_usart.o
 .text.USART_TxDoubleExt
                0x00000000       0x28 ./emlib/src/em_usart.o
 .text.USART_TxExt
                0x00000000       0x2c ./emlib/src/em_usart.o
 .text          0x00000000        0x0 ./emlib/src/em_vcmp.o
 .data          0x00000000        0x0 ./emlib/src/em_vcmp.o
 .bss           0x00000000        0x0 ./emlib/src/em_vcmp.o
 .text.VCMP_Ready
                0x00000000       0x24 ./emlib/src/em_vcmp.o
 .text.VCMP_IntClear
                0x00000000       0x1c ./emlib/src/em_vcmp.o
 .text.VCMP_Init
                0x00000000      0x1a4 ./emlib/src/em_vcmp.o
 .text.VCMP_LowPowerRefSet
                0x00000000       0x3c ./emlib/src/em_vcmp.o
 .text.VCMP_TriggerSet
                0x00000000       0x34 ./emlib/src/em_vcmp.o
 .debug_info    0x00000000      0x303 ./emlib/src/em_vcmp.o
 .debug_abbrev  0x00000000      0x113 ./emlib/src/em_vcmp.o
 .debug_loc     0x00000000      0x1a8 ./emlib/src/em_vcmp.o
 .debug_aranges
                0x00000000       0x40 ./emlib/src/em_vcmp.o
 .debug_ranges  0x00000000       0x30 ./emlib/src/em_vcmp.o
 .debug_line    0x00000000      0x37a ./emlib/src/em_vcmp.o
 .debug_str     0x00000000      0x3d8 ./emlib/src/em_vcmp.o
 .comment       0x00000000       0x71 ./emlib/src/em_vcmp.o
 .debug_frame   0x00000000       0xcc ./emlib/src/em_vcmp.o
 .ARM.attributes
                0x00000000       0x33 ./emlib/src/em_vcmp.o
 .text          0x00000000        0x0 ./emlib/src/em_vdac.o
 .data          0x00000000        0x0 ./emlib/src/em_vdac.o
 .bss           0x00000000        0x0 ./emlib/src/em_vdac.o
 .debug_info    0x00000000       0x90 ./emlib/src/em_vdac.o
 .debug_abbrev  0x00000000       0x49 ./emlib/src/em_vdac.o
 .debug_aranges
                0x00000000       0x18 ./emlib/src/em_vdac.o
 .debug_line    0x00000000      0x178 ./emlib/src/em_vdac.o
 .debug_str     0x00000000      0x1e1 ./emlib/src/em_vdac.o
 .comment       0x00000000       0x71 ./emlib/src/em_vdac.o
 .ARM.attributes
                0x00000000       0x33 ./emlib/src/em_vdac.o
 .text          0x00000000        0x0 ./emlib/src/em_wdog.o
 .data          0x00000000        0x0 ./emlib/src/em_wdog.o
 .bss           0x00000000        0x0 ./emlib/src/em_wdog.o
 .text.BUS_RegBitWrite
                0x00000000       0x2c ./emlib/src/em_wdog.o
 .text.BUS_RegBitRead
                0x00000000       0x2c ./emlib/src/em_wdog.o
 .text.WDOGn_Enable
                0x00000000       0x64 ./emlib/src/em_wdog.o
 .text.WDOGn_Feed
                0x00000000       0x44 ./emlib/src/em_wdog.o
 .text.WDOGn_Init
                0x00000000       0xb0 ./emlib/src/em_wdog.o
 .text.WDOGn_Lock
                0x00000000       0x28 ./emlib/src/em_wdog.o
 .debug_info    0x00000000      0x3b2 ./emlib/src/em_wdog.o
 .debug_abbrev  0x00000000      0x133 ./emlib/src/em_wdog.o
 .debug_loc     0x00000000      0x210 ./emlib/src/em_wdog.o
 .debug_aranges
                0x00000000       0x48 ./emlib/src/em_wdog.o
 .debug_ranges  0x00000000       0x38 ./emlib/src/em_wdog.o
 .debug_line    0x00000000      0x392 ./emlib/src/em_wdog.o
 .debug_str     0x00000000      0x41f ./emlib/src/em_wdog.o
 .comment       0x00000000       0x71 ./emlib/src/em_wdog.o
 .debug_frame   0x00000000       0xf8 ./emlib/src/em_wdog.o
 .ARM.attributes
                0x00000000       0x33 ./emlib/src/em_wdog.o
 .text          0x00000000        0x0 ./fat_filesystem_src/diskio.o
 .data          0x00000000        0x0 ./fat_filesystem_src/diskio.o
 .bss           0x00000000        0x0 ./fat_filesystem_src/diskio.o
 .text          0x00000000        0x0 ./fat_filesystem_src/ff.o
 .data          0x00000000        0x0 ./fat_filesystem_src/ff.o
 .bss           0x00000000        0x0 ./fat_filesystem_src/ff.o
 .text.dir_read
                0x00000000       0xb4 ./fat_filesystem_src/ff.o
 .text.dir_remove
                0x00000000       0x3c ./fat_filesystem_src/ff.o
 .text.get_fileinfo
                0x00000000       0xbc ./fat_filesystem_src/ff.o
 .text.f_read   0x00000000      0x274 ./fat_filesystem_src/ff.o
 .text.f_lseek  0x00000000      0x264 ./fat_filesystem_src/ff.o
 .text.f_opendir
                0x00000000       0xbc ./fat_filesystem_src/ff.o
 .text.f_closedir
                0x00000000       0x30 ./fat_filesystem_src/ff.o
 .text.f_readdir
                0x00000000       0x7c ./fat_filesystem_src/ff.o
 .text.f_stat   0x00000000       0x78 ./fat_filesystem_src/ff.o
 .text.f_getfree
                0x00000000      0x170 ./fat_filesystem_src/ff.o
 .text.f_truncate
                0x00000000      0x134 ./fat_filesystem_src/ff.o
 .text.f_unlink
                0x00000000      0x140 ./fat_filesystem_src/ff.o
 .text.f_mkdir  0x00000000      0x210 ./fat_filesystem_src/ff.o
 .text.f_rename
                0x00000000      0x1d8 ./fat_filesystem_src/ff.o
 .text.f_gets   0x00000000       0x78 ./fat_filesystem_src/ff.o
 .text.f_putc   0x00000000       0x3c ./fat_filesystem_src/ff.o
 .text.f_printf
                0x00000000      0x438 ./fat_filesystem_src/ff.o
 .text          0x00000000        0x0 ./fifo_buffers_src/fifo_rs232.o
 .data          0x00000000        0x0 ./fifo_buffers_src/fifo_rs232.o
 .bss           0x00000000        0x0 ./fifo_buffers_src/fifo_rs232.o
 .text          0x00000000        0x0 ./fifo_buffers_src/fifo_tbr.o
 .data          0x00000000        0x0 ./fifo_buffers_src/fifo_tbr.o
 .bss           0x00000000        0x0 ./fifo_buffers_src/fifo_tbr.o
 .text          0x00000000        0x0 ./hal/debug.o
 .data          0x00000000        0x0 ./hal/debug.o
 .bss           0x00000000        0x0 ./hal/debug.o
 .rodata.cfg_msg_poll_nav
                0x00000000        0xa ./hal/debug.o
 .rodata.nav_pvt_gps_data
                0x00000000        0x8 ./hal/debug.o
 .rodata.cfg_prt_spi
                0x00000000       0x1c ./hal/debug.o
 .rodata.cfg_prt_uart
                0x00000000       0x1c ./hal/debug.o
 .rodata.cfg_prt_usb
                0x00000000       0x1c ./hal/debug.o
 .rodata.cfg_prt_ddc
                0x00000000       0x1c ./hal/debug.o
 .rodata.cfg_pm2_on_off
                0x00000000       0x34 ./hal/debug.o
 .rodata.cfg_sbas_disable
                0x00000000       0x10 ./hal/debug.o
 .rodata.cfg_rxm_psm_mode
                0x00000000        0xa ./hal/debug.o
 .rodata.cfg_rxm_poll_psm
                0x00000000        0x8 ./hal/debug.o
 .rodata        0x00000000       0xfb ./hal/debug.o
 .text.debug_init
                0x00000000       0x18 ./hal/debug.o
 .text.debug_led
                0x00000000       0x28 ./hal/debug.o
 .text.debug_char
                0x00000000       0x18 ./hal/debug.o
 .text.debug_hex
                0x00000000       0x38 ./hal/debug.o
 .text.debug_buf
                0x00000000       0x40 ./hal/debug.o
 .text.debug_uint
                0x00000000       0x38 ./hal/debug.o
 .text.debug_val
                0x00000000       0x28 ./hal/debug.o
 .text.debug_event
                0x00000000       0x18 ./hal/debug.o
 .data.evnames.8284
                0x00000000       0x40 ./hal/debug.o
 .text          0x00000000        0x0 ./hal/hal.o
 .data          0x00000000        0x0 ./hal/hal.o
 .bss           0x00000000        0x0 ./hal/hal.o
 .rodata.cfg_msg_poll_nav
                0x00000000        0xa ./hal/hal.o
 .rodata.nav_pvt_gps_data
                0x00000000        0x8 ./hal/hal.o
 .rodata.cfg_prt_spi
                0x00000000       0x1c ./hal/hal.o
 .rodata.cfg_prt_uart
                0x00000000       0x1c ./hal/hal.o
 .rodata.cfg_prt_usb
                0x00000000       0x1c ./hal/hal.o
 .rodata.cfg_prt_ddc
                0x00000000       0x1c ./hal/hal.o
 .rodata.cfg_pm2_on_off
                0x00000000       0x34 ./hal/hal.o
 .rodata.cfg_sbas_disable
                0x00000000       0x10 ./hal/hal.o
 .rodata.cfg_rxm_psm_mode
                0x00000000        0xa ./hal/hal.o
 .rodata.cfg_rxm_poll_psm
                0x00000000        0x8 ./hal/hal.o
 .text          0x00000000        0x0 ./lmic/aes.o
 .data          0x00000000        0x0 ./lmic/aes.o
 .bss           0x00000000        0x0 ./lmic/aes.o
 .rodata.cfg_msg_poll_nav
                0x00000000        0xa ./lmic/aes.o
 .rodata.nav_pvt_gps_data
                0x00000000        0x8 ./lmic/aes.o
 .rodata.cfg_prt_spi
                0x00000000       0x1c ./lmic/aes.o
 .rodata.cfg_prt_uart
                0x00000000       0x1c ./lmic/aes.o
 .rodata.cfg_prt_usb
                0x00000000       0x1c ./lmic/aes.o
 .rodata.cfg_prt_ddc
                0x00000000       0x1c ./lmic/aes.o
 .rodata.cfg_pm2_on_off
                0x00000000       0x34 ./lmic/aes.o
 .rodata.cfg_sbas_disable
                0x00000000       0x10 ./lmic/aes.o
 .rodata.cfg_rxm_psm_mode
                0x00000000        0xa ./lmic/aes.o
 .rodata.cfg_rxm_poll_psm
                0x00000000        0x8 ./lmic/aes.o
 .rodata.AES_RCON
                0x00000000       0x28 ./lmic/aes.o
 .rodata.AES_S  0x00000000      0x100 ./lmic/aes.o
 .rodata.AES_E1
                0x00000000      0x400 ./lmic/aes.o
 .rodata.AES_E2
                0x00000000      0x400 ./lmic/aes.o
 .rodata.AES_E3
                0x00000000      0x400 ./lmic/aes.o
 .rodata.AES_E4
                0x00000000      0x400 ./lmic/aes.o
 .text.aesroundkeys
                0x00000000       0xf4 ./lmic/aes.o
 .text.os_aes   0x00000000      0x99c ./lmic/aes.o
 .debug_info    0x00000000      0x432 ./lmic/aes.o
 .debug_abbrev  0x00000000      0x108 ./lmic/aes.o
 .debug_loc     0x00000000       0xac ./lmic/aes.o
 .debug_aranges
                0x00000000       0x28 ./lmic/aes.o
 .debug_ranges  0x00000000       0x18 ./lmic/aes.o
 .debug_line    0x00000000      0x34a ./lmic/aes.o
 .debug_str     0x00000000      0x30f ./lmic/aes.o
 .comment       0x00000000       0x71 ./lmic/aes.o
 .debug_frame   0x00000000       0x60 ./lmic/aes.o
 .ARM.attributes
                0x00000000       0x33 ./lmic/aes.o
 COMMON         0x00000000       0xc0 ./lmic/aes.o
 .text          0x00000000        0x0 ./lmic/lmic.o
 .data          0x00000000        0x0 ./lmic/lmic.o
 .bss           0x00000000        0x0 ./lmic/lmic.o
 .rodata.cfg_msg_poll_nav
                0x00000000        0xa ./lmic/lmic.o
 .rodata.nav_pvt_gps_data
                0x00000000        0x8 ./lmic/lmic.o
 .rodata.cfg_prt_spi
                0x00000000       0x1c ./lmic/lmic.o
 .rodata.cfg_prt_uart
                0x00000000       0x1c ./lmic/lmic.o
 .rodata.cfg_prt_usb
                0x00000000       0x1c ./lmic/lmic.o
 .rodata.cfg_prt_ddc
                0x00000000       0x1c ./lmic/lmic.o
 .rodata.cfg_pm2_on_off
                0x00000000       0x34 ./lmic/lmic.o
 .rodata.cfg_sbas_disable
                0x00000000       0x10 ./lmic/lmic.o
 .rodata.cfg_rxm_psm_mode
                0x00000000        0xa ./lmic/lmic.o
 .rodata.cfg_rxm_poll_psm
                0x00000000        0x8 ./lmic/lmic.o
 .text.setSf    0x00000000       0x30 ./lmic/lmic.o
 .text.setBw    0x00000000       0x30 ./lmic/lmic.o
 .text.setCr    0x00000000       0x30 ./lmic/lmic.o
 .text.setNocrc
                0x00000000       0x2c ./lmic/lmic.o
 .text.setIh    0x00000000       0x2c ./lmic/lmic.o
 .text.makeRps  0x00000000       0x54 ./lmic/lmic.o
 .text.sameSfBw
                0x00000000       0x34 ./lmic/lmic.o
 .text.updr2rps
                0x00000000       0x24 ./lmic/lmic.o
 .text.dndr2rps
                0x00000000       0x28 ./lmic/lmic.o
 .text.isFasterDR
                0x00000000       0x2c ./lmic/lmic.o
 .text.isSlowerDR
                0x00000000       0x2c ./lmic/lmic.o
 .text.incDR    0x00000000       0x30 ./lmic/lmic.o
 .text.decDR    0x00000000       0x30 ./lmic/lmic.o
 .text.assertDR
                0x00000000       0x2c ./lmic/lmic.o
 .text.validDR  0x00000000       0x2c ./lmic/lmic.o
 .text.lowerDR  0x00000000       0x34 ./lmic/lmic.o
 .text.os_rlsbf2
                0x00000000       0x2c ./lmic/lmic.o
 .text.os_rlsbf4
                0x00000000       0x3c ./lmic/lmic.o
 .text.os_rmsbf4
                0x00000000       0x3c ./lmic/lmic.o
 .text.os_wlsbf2
                0x00000000       0x2c ./lmic/lmic.o
 .text.os_wlsbf4
                0x00000000       0x40 ./lmic/lmic.o
 .text.os_wmsbf4
                0x00000000       0x40 ./lmic/lmic.o
 .text.os_getBattLevel
                0x00000000       0x10 ./lmic/lmic.o
 .text.micB0    0x00000000       0x60 ./lmic/lmic.o
 .text.aes_verifyMic
                0x00000000       0x58 ./lmic/lmic.o
 .text.aes_appendMic
                0x00000000       0x4c ./lmic/lmic.o
 .text.aes_appendMic0
                0x00000000       0x38 ./lmic/lmic.o
 .text.aes_verifyMic0
                0x00000000       0x44 ./lmic/lmic.o
 .text.aes_encrypt
                0x00000000       0x28 ./lmic/lmic.o
 .text.aes_cipher
                0x00000000       0x84 ./lmic/lmic.o
 .text.aes_sessKeys
                0x00000000       0x78 ./lmic/lmic.o
 .rodata.maxFrameLens
                0x00000000        0x4 ./lmic/lmic.o
 .rodata._DR2RPS_CRC
                0x00000000        0xa ./lmic/lmic.o
 .rodata.TXPOWLEVELS
                0x00000000       0x10 ./lmic/lmic.o
 .rodata.SENSITIVITY
                0x00000000       0x15 ./lmic/lmic.o
 .text.getSensitivity
                0x00000000       0x40 ./lmic/lmic.o
 .text.calcAirTime
                0x00000000      0x124 ./lmic/lmic.o
 .rodata.DRADJUST
                0x00000000        0xa ./lmic/lmic.o
 .rodata.DR2HSYM_osticks
                0x00000000       0x20 ./lmic/lmic.o
 .text.calcRxWindow
                0x00000000       0x94 ./lmic/lmic.o
 .text.rndDelay
                0x00000000       0x64 ./lmic/lmic.o
 .text.txDelay  0x00000000       0x58 ./lmic/lmic.o
 .text.setDrJoin
                0x00000000       0x28 ./lmic/lmic.o
 .text.setDrTxpow
                0x00000000       0x58 ./lmic/lmic.o
 .rodata.iniChannelFreq
                0x00000000       0x30 ./lmic/lmic.o
 .text.initDefaultChannels
                0x00000000      0x120 ./lmic/lmic.o
 .text.LMIC_setupBand
                0x00000000       0x5c ./lmic/lmic.o
 .text.LMIC_setupChannel
                0x00000000       0xf8 ./lmic/lmic.o
 .text.LMIC_disableChannel
                0x00000000       0x54 ./lmic/lmic.o
 .text.convFreq
                0x00000000       0x44 ./lmic/lmic.o
 .text.mapChannels
                0x00000000       0x90 ./lmic/lmic.o
 .text.updateTx
                0x00000000       0x90 ./lmic/lmic.o
 .text.nextTx   0x00000000      0x138 ./lmic/lmic.o
 .text.initJoinLoop
                0x00000000       0x6c ./lmic/lmic.o
 .text.nextJoinState
                0x00000000       0xcc ./lmic/lmic.o
 .text.runEngineUpdate
                0x00000000       0x14 ./lmic/lmic.o
 .text.reportEvent
                0x00000000       0x1c ./lmic/lmic.o
 .text.runReset
                0x00000000       0x1c ./lmic/lmic.o
 .text.stateJustJoined
                0x00000000       0xb0 ./lmic/lmic.o
 .text.decodeFrame
                0x00000000      0x57c ./lmic/lmic.o
 .text.setupRx2
                0x00000000       0x40 ./lmic/lmic.o
 .text.schedRx2
                0x00000000       0x50 ./lmic/lmic.o
 .text.setupRx1
                0x00000000       0x44 ./lmic/lmic.o
 .text.txDone   0x00000000       0x70 ./lmic/lmic.o
 .text.onJoinFailed
                0x00000000       0x14 ./lmic/lmic.o
 .text.processJoinAccept
                0x00000000      0x25c ./lmic/lmic.o
 .text.processRx2Jacc
                0x00000000       0x28 ./lmic/lmic.o
 .text.setupRx2Jacc
                0x00000000       0x20 ./lmic/lmic.o
 .text.processRx1Jacc
                0x00000000       0x34 ./lmic/lmic.o
 .text.setupRx1Jacc
                0x00000000       0x18 ./lmic/lmic.o
 .text.jreqDone
                0x00000000       0x1c ./lmic/lmic.o
 .text.processRx2DnDataDelay
                0x00000000       0x14 ./lmic/lmic.o
 .text.processRx2DnData
                0x00000000       0x50 ./lmic/lmic.o
 .text.setupRx2DnData
                0x00000000       0x20 ./lmic/lmic.o
 .text.processRx1DnData
                0x00000000       0x34 ./lmic/lmic.o
 .text.setupRx1DnData
                0x00000000       0x18 ./lmic/lmic.o
 .text.updataDone
                0x00000000       0x1c ./lmic/lmic.o
 .text.buildDataFrame
                0x00000000      0x330 ./lmic/lmic.o
 .text.buildJoinRequest
                0x00000000       0x6c ./lmic/lmic.o
 .text.startJoining
                0x00000000       0x14 ./lmic/lmic.o
 .text.LMIC_startJoining
                0x00000000       0x94 ./lmic/lmic.o
 .text.processDnData
                0x00000000      0x1a0 ./lmic/lmic.o
 .text.engineUpdate
                0x00000000      0x214 ./lmic/lmic.o
 .text.LMIC_setAdrMode
                0x00000000       0x2c ./lmic/lmic.o
 .text.LMIC_setDrTxpow
                0x00000000       0x28 ./lmic/lmic.o
 .text.LMIC_shutdown
                0x00000000       0x2c ./lmic/lmic.o
 .text.LMIC_restart
                0x00000000       0x24 ./lmic/lmic.o
 .text.LMIC_reset
                0x00000000       0x74 ./lmic/lmic.o
 .text.LMIC_clrTxData
                0x00000000       0x48 ./lmic/lmic.o
 .text.LMIC_setTxData
                0x00000000       0x38 ./lmic/lmic.o
 .text.LMIC_setTxData2
                0x00000000       0x64 ./lmic/lmic.o
 .text.LMIC_sendAlive
                0x00000000       0x20 ./lmic/lmic.o
 .text.LMIC_tryRejoin
                0x00000000       0x20 ./lmic/lmic.o
 .text.LMIC_setSession
                0x00000000       0x84 ./lmic/lmic.o
 .text.LMIC_setLinkCheckMode
                0x00000000       0x34 ./lmic/lmic.o
 .text          0x00000000        0x0 ./lmic/oslmic.o
 .data          0x00000000        0x0 ./lmic/oslmic.o
 .bss           0x00000000        0x0 ./lmic/oslmic.o
 .rodata.cfg_msg_poll_nav
                0x00000000        0xa ./lmic/oslmic.o
 .rodata.nav_pvt_gps_data
                0x00000000        0x8 ./lmic/oslmic.o
 .rodata.cfg_prt_spi
                0x00000000       0x1c ./lmic/oslmic.o
 .rodata.cfg_prt_uart
                0x00000000       0x1c ./lmic/oslmic.o
 .rodata.cfg_prt_usb
                0x00000000       0x1c ./lmic/oslmic.o
 .rodata.cfg_prt_ddc
                0x00000000       0x1c ./lmic/oslmic.o
 .rodata.cfg_pm2_on_off
                0x00000000       0x34 ./lmic/oslmic.o
 .rodata.cfg_sbas_disable
                0x00000000       0x10 ./lmic/oslmic.o
 .rodata.cfg_rxm_psm_mode
                0x00000000        0xa ./lmic/oslmic.o
 .rodata.cfg_rxm_poll_psm
                0x00000000        0x8 ./lmic/oslmic.o
 .text          0x00000000        0x0 ./lmic/radio.o
 .data          0x00000000        0x0 ./lmic/radio.o
 .bss           0x00000000        0x0 ./lmic/radio.o
 .rodata.cfg_msg_poll_nav
                0x00000000        0xa ./lmic/radio.o
 .rodata.nav_pvt_gps_data
                0x00000000        0x8 ./lmic/radio.o
 .rodata.cfg_prt_spi
                0x00000000       0x1c ./lmic/radio.o
 .rodata.cfg_prt_uart
                0x00000000       0x1c ./lmic/radio.o
 .rodata.cfg_prt_usb
                0x00000000       0x1c ./lmic/radio.o
 .rodata.cfg_prt_ddc
                0x00000000       0x1c ./lmic/radio.o
 .rodata.cfg_pm2_on_off
                0x00000000       0x34 ./lmic/radio.o
 .rodata.cfg_sbas_disable
                0x00000000       0x10 ./lmic/radio.o
 .rodata.cfg_rxm_psm_mode
                0x00000000        0xa ./lmic/radio.o
 .rodata.cfg_rxm_poll_psm
                0x00000000        0x8 ./lmic/radio.o
 .text.writeBuf
                0x00000000       0x54 ./lmic/radio.o
 .text.opmodeFSK
                0x00000000       0x24 ./lmic/radio.o
 .text.configPower
                0x00000000       0x60 ./lmic/radio.o
 .text.txfsk    0x00000000       0xd8 ./lmic/radio.o
 .text.txlora   0x00000000       0xb4 ./lmic/radio.o
 .text.starttx  0x00000000       0x38 ./lmic/radio.o
 .text.rxfsk    0x00000000       0xe0 ./lmic/radio.o
 .text.startrx  0x00000000       0x4c ./lmic/radio.o
 .text.radio_rand1
                0x00000000       0x4c ./lmic/radio.o
 .text.radio_rssi
                0x00000000       0x24 ./lmic/radio.o
 .text.os_radio
                0x00000000       0x54 ./lmic/radio.o
 .text          0x00000000        0x0 ./resource managers_src/app_manager.o
 .data          0x00000000        0x0 ./resource managers_src/app_manager.o
 .bss           0x00000000        0x0 ./resource managers_src/app_manager.o
 .rodata.cfg_msg_poll_nav
                0x00000000        0xa ./resource managers_src/app_manager.o
 .rodata.nav_pvt_gps_data
                0x00000000        0x8 ./resource managers_src/app_manager.o
 .rodata.cfg_prt_spi
                0x00000000       0x1c ./resource managers_src/app_manager.o
 .rodata.cfg_prt_uart
                0x00000000       0x1c ./resource managers_src/app_manager.o
 .rodata.cfg_prt_usb
                0x00000000       0x1c ./resource managers_src/app_manager.o
 .rodata.cfg_prt_ddc
                0x00000000       0x1c ./resource managers_src/app_manager.o
 .rodata.cfg_pm2_on_off
                0x00000000       0x34 ./resource managers_src/app_manager.o
 .rodata.cfg_sbas_disable
                0x00000000       0x10 ./resource managers_src/app_manager.o
 .rodata.cfg_rxm_psm_mode
                0x00000000        0xa ./resource managers_src/app_manager.o
 .rodata.cfg_rxm_poll_psm
                0x00000000        0x8 ./resource managers_src/app_manager.o
 .text.app_manager_get_nav_data
                0x00000000       0x18 ./resource managers_src/app_manager.o
 .text.app_manager_get_lora_buffer
                0x00000000       0x64 ./resource managers_src/app_manager.o
 .text          0x00000000        0x0 ./resource managers_src/lpwan_manager.o
 .data          0x00000000        0x0 ./resource managers_src/lpwan_manager.o
 .bss           0x00000000        0x0 ./resource managers_src/lpwan_manager.o
 .rodata.cfg_msg_poll_nav
                0x00000000        0xa ./resource managers_src/lpwan_manager.o
 .rodata.nav_pvt_gps_data
                0x00000000        0x8 ./resource managers_src/lpwan_manager.o
 .rodata.cfg_prt_spi
                0x00000000       0x1c ./resource managers_src/lpwan_manager.o
 .rodata.cfg_prt_uart
                0x00000000       0x1c ./resource managers_src/lpwan_manager.o
 .rodata.cfg_prt_usb
                0x00000000       0x1c ./resource managers_src/lpwan_manager.o
 .rodata.cfg_prt_ddc
                0x00000000       0x1c ./resource managers_src/lpwan_manager.o
 .rodata.cfg_pm2_on_off
                0x00000000       0x34 ./resource managers_src/lpwan_manager.o
 .rodata.cfg_sbas_disable
                0x00000000       0x10 ./resource managers_src/lpwan_manager.o
 .rodata.cfg_rxm_psm_mode
                0x00000000        0xa ./resource managers_src/lpwan_manager.o
 .rodata.cfg_rxm_poll_psm
                0x00000000        0x8 ./resource managers_src/lpwan_manager.o
 .rodata.APPEUI
                0x00000000        0x8 ./resource managers_src/lpwan_manager.o
 .rodata.DEVEUI
                0x00000000        0x8 ./resource managers_src/lpwan_manager.o
 .rodata.DEVKEY
                0x00000000       0x10 ./resource managers_src/lpwan_manager.o
 .bss.init_job  0x00000000        0xc ./resource managers_src/lpwan_manager.o
 .text.os_getArtEui
                0x00000000       0x1c ./resource managers_src/lpwan_manager.o
 .text.os_getDevEui
                0x00000000       0x1c ./resource managers_src/lpwan_manager.o
 .text.os_getDevKey
                0x00000000       0x1c ./resource managers_src/lpwan_manager.o
 .text.lora_tx_function
                0x00000000       0x34 ./resource managers_src/lpwan_manager.o
 .text.setup_channel
                0x00000000       0x60 ./resource managers_src/lpwan_manager.o
 .text.init_funct
                0x00000000       0x18 ./resource managers_src/lpwan_manager.o
 .text          0x00000000        0x0 ./src/main.o
 .data          0x00000000        0x0 ./src/main.o
 .bss           0x00000000        0x0 ./src/main.o
 .rodata.cfg_msg_poll_nav
                0x00000000        0xa ./src/main.o
 .rodata.nav_pvt_gps_data
                0x00000000        0x8 ./src/main.o
 .rodata.cfg_prt_spi
                0x00000000       0x1c ./src/main.o
 .rodata.cfg_prt_uart
                0x00000000       0x1c ./src/main.o
 .rodata.cfg_prt_usb
                0x00000000       0x1c ./src/main.o
 .rodata.cfg_prt_ddc
                0x00000000       0x1c ./src/main.o
 .rodata.cfg_pm2_on_off
                0x00000000       0x34 ./src/main.o
 .rodata.cfg_sbas_disable
                0x00000000       0x10 ./src/main.o
 .rodata.cfg_rxm_psm_mode
                0x00000000        0xa ./src/main.o
 .rodata.cfg_rxm_poll_psm
                0x00000000        0x8 ./src/main.o
 .rodata.APPEUI
                0x00000000        0x8 ./src/main.o
 .rodata.DEVEUI
                0x00000000        0x8 ./src/main.o
 .rodata.DEVKEY
                0x00000000       0x10 ./src/main.o
 .bss.lora_msg_length
                0x00000000        0x1 ./src/main.o
 COMMON         0x00000000      0x200 ./src/main.o
 .data          0x00000000        0x0 c:/siliconlabs/simplicitystudio/v4/developer/toolchains/gnu_arm/4.9_2015q3/bin/../lib/gcc/arm-none-eabi/4.9.3/armv7-m\libgcc.a(_arm_addsubdf3.o)
 .bss           0x00000000        0x0 c:/siliconlabs/simplicitystudio/v4/developer/toolchains/gnu_arm/4.9_2015q3/bin/../lib/gcc/arm-none-eabi/4.9.3/armv7-m\libgcc.a(_arm_addsubdf3.o)
 .data          0x00000000        0x0 c:/siliconlabs/simplicitystudio/v4/developer/toolchains/gnu_arm/4.9_2015q3/bin/../lib/gcc/arm-none-eabi/4.9.3/armv7-m\libgcc.a(_arm_addsubsf3.o)
 .bss           0x00000000        0x0 c:/siliconlabs/simplicitystudio/v4/developer/toolchains/gnu_arm/4.9_2015q3/bin/../lib/gcc/arm-none-eabi/4.9.3/armv7-m\libgcc.a(_arm_addsubsf3.o)
 .data          0x00000000        0x0 c:/siliconlabs/simplicitystudio/v4/developer/toolchains/gnu_arm/4.9_2015q3/bin/../lib/gcc/arm-none-eabi/4.9.3/armv7-m\libgcc.a(_arm_muldivsf3.o)
 .bss           0x00000000        0x0 c:/siliconlabs/simplicitystudio/v4/developer/toolchains/gnu_arm/4.9_2015q3/bin/../lib/gcc/arm-none-eabi/4.9.3/armv7-m\libgcc.a(_arm_muldivsf3.o)
 .data          0x00000000        0x0 c:/siliconlabs/simplicitystudio/v4/developer/toolchains/gnu_arm/4.9_2015q3/bin/../lib/gcc/arm-none-eabi/4.9.3/armv7-m\libgcc.a(_arm_cmpsf2.o)
 .bss           0x00000000        0x0 c:/siliconlabs/simplicitystudio/v4/developer/toolchains/gnu_arm/4.9_2015q3/bin/../lib/gcc/arm-none-eabi/4.9.3/armv7-m\libgcc.a(_arm_cmpsf2.o)
 .data          0x00000000        0x0 c:/siliconlabs/simplicitystudio/v4/developer/toolchains/gnu_arm/4.9_2015q3/bin/../lib/gcc/arm-none-eabi/4.9.3/armv7-m\libgcc.a(_arm_fixsfsi.o)
 .bss           0x00000000        0x0 c:/siliconlabs/simplicitystudio/v4/developer/toolchains/gnu_arm/4.9_2015q3/bin/../lib/gcc/arm-none-eabi/4.9.3/armv7-m\libgcc.a(_arm_fixsfsi.o)
 .data          0x00000000        0x0 c:/siliconlabs/simplicitystudio/v4/developer/toolchains/gnu_arm/4.9_2015q3/bin/../lib/gcc/arm-none-eabi/4.9.3/armv7-m\libgcc.a(_aeabi_uldivmod.o)
 .bss           0x00000000        0x0 c:/siliconlabs/simplicitystudio/v4/developer/toolchains/gnu_arm/4.9_2015q3/bin/../lib/gcc/arm-none-eabi/4.9.3/armv7-m\libgcc.a(_aeabi_uldivmod.o)
 .data          0x00000000        0x0 c:/siliconlabs/simplicitystudio/v4/developer/toolchains/gnu_arm/4.9_2015q3/bin/../lib/gcc/arm-none-eabi/4.9.3/armv7-m\libgcc.a(bpabi.o)
 .bss           0x00000000        0x0 c:/siliconlabs/simplicitystudio/v4/developer/toolchains/gnu_arm/4.9_2015q3/bin/../lib/gcc/arm-none-eabi/4.9.3/armv7-m\libgcc.a(bpabi.o)
 .data          0x00000000        0x0 c:/siliconlabs/simplicitystudio/v4/developer/toolchains/gnu_arm/4.9_2015q3/bin/../lib/gcc/arm-none-eabi/4.9.3/armv7-m\libgcc.a(_dvmd_tls.o)
 .bss           0x00000000        0x0 c:/siliconlabs/simplicitystudio/v4/developer/toolchains/gnu_arm/4.9_2015q3/bin/../lib/gcc/arm-none-eabi/4.9.3/armv7-m\libgcc.a(_dvmd_tls.o)
 .data          0x00000000        0x0 c:/siliconlabs/simplicitystudio/v4/developer/toolchains/gnu_arm/4.9_2015q3/bin/../lib/gcc/arm-none-eabi/4.9.3/armv7-m\libgcc.a(_divdi3.o)
 .bss           0x00000000        0x0 c:/siliconlabs/simplicitystudio/v4/developer/toolchains/gnu_arm/4.9_2015q3/bin/../lib/gcc/arm-none-eabi/4.9.3/armv7-m\libgcc.a(_divdi3.o)
 .ARM.extab     0x00000000        0x0 c:/siliconlabs/simplicitystudio/v4/developer/toolchains/gnu_arm/4.9_2015q3/bin/../lib/gcc/arm-none-eabi/4.9.3/armv7-m\libgcc.a(_divdi3.o)
 .data          0x00000000        0x0 c:/siliconlabs/simplicitystudio/v4/developer/toolchains/gnu_arm/4.9_2015q3/bin/../lib/gcc/arm-none-eabi/4.9.3/armv7-m\libgcc.a(_udivdi3.o)
 .bss           0x00000000        0x0 c:/siliconlabs/simplicitystudio/v4/developer/toolchains/gnu_arm/4.9_2015q3/bin/../lib/gcc/arm-none-eabi/4.9.3/armv7-m\libgcc.a(_udivdi3.o)
 .ARM.extab     0x00000000        0x0 c:/siliconlabs/simplicitystudio/v4/developer/toolchains/gnu_arm/4.9_2015q3/bin/../lib/gcc/arm-none-eabi/4.9.3/armv7-m\libgcc.a(_udivdi3.o)
 .text          0x00000000        0x0 c:/siliconlabs/simplicitystudio/v4/developer/toolchains/gnu_arm/4.9_2015q3/bin/../lib/gcc/arm-none-eabi/4.9.3/../../../../arm-none-eabi/lib/armv7-m\libc_nano.a(lib_a-exit.o)
 .data          0x00000000        0x0 c:/siliconlabs/simplicitystudio/v4/developer/toolchains/gnu_arm/4.9_2015q3/bin/../lib/gcc/arm-none-eabi/4.9.3/../../../../arm-none-eabi/lib/armv7-m\libc_nano.a(lib_a-exit.o)
 .bss           0x00000000        0x0 c:/siliconlabs/simplicitystudio/v4/developer/toolchains/gnu_arm/4.9_2015q3/bin/../lib/gcc/arm-none-eabi/4.9.3/../../../../arm-none-eabi/lib/armv7-m\libc_nano.a(lib_a-exit.o)
 .text          0x00000000        0x0 c:/siliconlabs/simplicitystudio/v4/developer/toolchains/gnu_arm/4.9_2015q3/bin/../lib/gcc/arm-none-eabi/4.9.3/../../../../arm-none-eabi/lib/armv7-m\libc_nano.a(lib_a-impure.o)
 .data          0x00000000        0x0 c:/siliconlabs/simplicitystudio/v4/developer/toolchains/gnu_arm/4.9_2015q3/bin/../lib/gcc/arm-none-eabi/4.9.3/../../../../arm-none-eabi/lib/armv7-m\libc_nano.a(lib_a-impure.o)
 .bss           0x00000000        0x0 c:/siliconlabs/simplicitystudio/v4/developer/toolchains/gnu_arm/4.9_2015q3/bin/../lib/gcc/arm-none-eabi/4.9.3/../../../../arm-none-eabi/lib/armv7-m\libc_nano.a(lib_a-impure.o)
 .text          0x00000000        0x0 c:/siliconlabs/simplicitystudio/v4/developer/toolchains/gnu_arm/4.9_2015q3/bin/../lib/gcc/arm-none-eabi/4.9.3/../../../../arm-none-eabi/lib/armv7-m\libc_nano.a(lib_a-init.o)
 .data          0x00000000        0x0 c:/siliconlabs/simplicitystudio/v4/developer/toolchains/gnu_arm/4.9_2015q3/bin/../lib/gcc/arm-none-eabi/4.9.3/../../../../arm-none-eabi/lib/armv7-m\libc_nano.a(lib_a-init.o)
 .bss           0x00000000        0x0 c:/siliconlabs/simplicitystudio/v4/developer/toolchains/gnu_arm/4.9_2015q3/bin/../lib/gcc/arm-none-eabi/4.9.3/../../../../arm-none-eabi/lib/armv7-m\libc_nano.a(lib_a-init.o)
 .text          0x00000000        0x0 c:/siliconlabs/simplicitystudio/v4/developer/toolchains/gnu_arm/4.9_2015q3/bin/../lib/gcc/arm-none-eabi/4.9.3/../../../../arm-none-eabi/lib/armv7-m\libc_nano.a(lib_a-memcpy.o)
 .data          0x00000000        0x0 c:/siliconlabs/simplicitystudio/v4/developer/toolchains/gnu_arm/4.9_2015q3/bin/../lib/gcc/arm-none-eabi/4.9.3/../../../../arm-none-eabi/lib/armv7-m\libc_nano.a(lib_a-memcpy.o)
 .bss           0x00000000        0x0 c:/siliconlabs/simplicitystudio/v4/developer/toolchains/gnu_arm/4.9_2015q3/bin/../lib/gcc/arm-none-eabi/4.9.3/../../../../arm-none-eabi/lib/armv7-m\libc_nano.a(lib_a-memcpy.o)
 .text          0x00000000        0x0 c:/siliconlabs/simplicitystudio/v4/developer/toolchains/gnu_arm/4.9_2015q3/bin/../lib/gcc/arm-none-eabi/4.9.3/../../../../arm-none-eabi/lib/armv7-m\libc_nano.a(lib_a-memset.o)
 .data          0x00000000        0x0 c:/siliconlabs/simplicitystudio/v4/developer/toolchains/gnu_arm/4.9_2015q3/bin/../lib/gcc/arm-none-eabi/4.9.3/../../../../arm-none-eabi/lib/armv7-m\libc_nano.a(lib_a-memset.o)
 .bss           0x00000000        0x0 c:/siliconlabs/simplicitystudio/v4/developer/toolchains/gnu_arm/4.9_2015q3/bin/../lib/gcc/arm-none-eabi/4.9.3/../../../../arm-none-eabi/lib/armv7-m\libc_nano.a(lib_a-memset.o)
 .text          0x00000000        0x0 c:/siliconlabs/simplicitystudio/v4/developer/toolchains/gnu_arm/4.9_2015q3/bin/../lib/gcc/arm-none-eabi/4.9.3/../../../../arm-none-eabi/lib/armv7-m\libc_nano.a(lib_a-nano-vfprintf_float.o)
 .data          0x00000000        0x0 c:/siliconlabs/simplicitystudio/v4/developer/toolchains/gnu_arm/4.9_2015q3/bin/../lib/gcc/arm-none-eabi/4.9.3/../../../../arm-none-eabi/lib/armv7-m\libc_nano.a(lib_a-nano-vfprintf_float.o)
 .bss           0x00000000        0x0 c:/siliconlabs/simplicitystudio/v4/developer/toolchains/gnu_arm/4.9_2015q3/bin/../lib/gcc/arm-none-eabi/4.9.3/../../../../arm-none-eabi/lib/armv7-m\libc_nano.a(lib_a-nano-vfprintf_float.o)
 .text          0x00000000        0x0 c:/siliconlabs/simplicitystudio/v4/developer/toolchains/gnu_arm/4.9_2015q3/bin/../lib/gcc/arm-none-eabi/4.9.3/../../../../arm-none-eabi/lib/armv7-m\libc_nano.a(lib_a-nano-vfprintf_i.o)
 .data          0x00000000        0x0 c:/siliconlabs/simplicitystudio/v4/developer/toolchains/gnu_arm/4.9_2015q3/bin/../lib/gcc/arm-none-eabi/4.9.3/../../../../arm-none-eabi/lib/armv7-m\libc_nano.a(lib_a-nano-vfprintf_i.o)
 .bss           0x00000000        0x0 c:/siliconlabs/simplicitystudio/v4/developer/toolchains/gnu_arm/4.9_2015q3/bin/../lib/gcc/arm-none-eabi/4.9.3/../../../../arm-none-eabi/lib/armv7-m\libc_nano.a(lib_a-nano-vfprintf_i.o)
 .text          0x00000000        0x0 c:/siliconlabs/simplicitystudio/v4/developer/toolchains/gnu_arm/4.9_2015q3/bin/../lib/gcc/arm-none-eabi/4.9.3/../../../../arm-none-eabi/lib/armv7-m\libc_nano.a(lib_a-s_fpclassify.o)
 .data          0x00000000        0x0 c:/siliconlabs/simplicitystudio/v4/developer/toolchains/gnu_arm/4.9_2015q3/bin/../lib/gcc/arm-none-eabi/4.9.3/../../../../arm-none-eabi/lib/armv7-m\libc_nano.a(lib_a-s_fpclassify.o)
 .bss           0x00000000        0x0 c:/siliconlabs/simplicitystudio/v4/developer/toolchains/gnu_arm/4.9_2015q3/bin/../lib/gcc/arm-none-eabi/4.9.3/../../../../arm-none-eabi/lib/armv7-m\libc_nano.a(lib_a-s_fpclassify.o)
 .text          0x00000000        0x0 c:/siliconlabs/simplicitystudio/v4/developer/toolchains/gnu_arm/4.9_2015q3/bin/../lib/gcc/arm-none-eabi/4.9.3/../../../../arm-none-eabi/lib/armv7-m\libc_nano.a(lib_a-sprintf.o)
 .data          0x00000000        0x0 c:/siliconlabs/simplicitystudio/v4/developer/toolchains/gnu_arm/4.9_2015q3/bin/../lib/gcc/arm-none-eabi/4.9.3/../../../../arm-none-eabi/lib/armv7-m\libc_nano.a(lib_a-sprintf.o)
 .bss           0x00000000        0x0 c:/siliconlabs/simplicitystudio/v4/developer/toolchains/gnu_arm/4.9_2015q3/bin/../lib/gcc/arm-none-eabi/4.9.3/../../../../arm-none-eabi/lib/armv7-m\libc_nano.a(lib_a-sprintf.o)
 .text._sprintf_r
                0x00000000       0x40 c:/siliconlabs/simplicitystudio/v4/developer/toolchains/gnu_arm/4.9_2015q3/bin/../lib/gcc/arm-none-eabi/4.9.3/../../../../arm-none-eabi/lib/armv7-m\libc_nano.a(lib_a-sprintf.o)
 .text          0x00000000        0x0 c:/siliconlabs/simplicitystudio/v4/developer/toolchains/gnu_arm/4.9_2015q3/bin/../lib/gcc/arm-none-eabi/4.9.3/../../../../arm-none-eabi/lib/armv7-m\libc_nano.a(lib_a-strchr.o)
 .data          0x00000000        0x0 c:/siliconlabs/simplicitystudio/v4/developer/toolchains/gnu_arm/4.9_2015q3/bin/../lib/gcc/arm-none-eabi/4.9.3/../../../../arm-none-eabi/lib/armv7-m\libc_nano.a(lib_a-strchr.o)
 .bss           0x00000000        0x0 c:/siliconlabs/simplicitystudio/v4/developer/toolchains/gnu_arm/4.9_2015q3/bin/../lib/gcc/arm-none-eabi/4.9.3/../../../../arm-none-eabi/lib/armv7-m\libc_nano.a(lib_a-strchr.o)
 .text          0x00000000        0x0 c:/siliconlabs/simplicitystudio/v4/developer/toolchains/gnu_arm/4.9_2015q3/bin/../lib/gcc/arm-none-eabi/4.9.3/../../../../arm-none-eabi/lib/armv7-m\libc_nano.a(lib_a-strlen.o)
 .data          0x00000000        0x0 c:/siliconlabs/simplicitystudio/v4/developer/toolchains/gnu_arm/4.9_2015q3/bin/../lib/gcc/arm-none-eabi/4.9.3/../../../../arm-none-eabi/lib/armv7-m\libc_nano.a(lib_a-strlen.o)
 .bss           0x00000000        0x0 c:/siliconlabs/simplicitystudio/v4/developer/toolchains/gnu_arm/4.9_2015q3/bin/../lib/gcc/arm-none-eabi/4.9.3/../../../../arm-none-eabi/lib/armv7-m\libc_nano.a(lib_a-strlen.o)
 .text          0x00000000        0x0 c:/siliconlabs/simplicitystudio/v4/developer/toolchains/gnu_arm/4.9_2015q3/bin/../lib/gcc/arm-none-eabi/4.9.3/../../../../arm-none-eabi/lib/armv7-m\libc_nano.a(lib_a-strncmp.o)
 .data          0x00000000        0x0 c:/siliconlabs/simplicitystudio/v4/developer/toolchains/gnu_arm/4.9_2015q3/bin/../lib/gcc/arm-none-eabi/4.9.3/../../../../arm-none-eabi/lib/armv7-m\libc_nano.a(lib_a-strncmp.o)
 .bss           0x00000000        0x0 c:/siliconlabs/simplicitystudio/v4/developer/toolchains/gnu_arm/4.9_2015q3/bin/../lib/gcc/arm-none-eabi/4.9.3/../../../../arm-none-eabi/lib/armv7-m\libc_nano.a(lib_a-strncmp.o)
 .text          0x00000000        0x0 c:/siliconlabs/simplicitystudio/v4/developer/toolchains/gnu_arm/4.9_2015q3/bin/../lib/gcc/arm-none-eabi/4.9.3/../../../../arm-none-eabi/lib/armv7-m\libc_nano.a(lib_a-strstr.o)
 .data          0x00000000        0x0 c:/siliconlabs/simplicitystudio/v4/developer/toolchains/gnu_arm/4.9_2015q3/bin/../lib/gcc/arm-none-eabi/4.9.3/../../../../arm-none-eabi/lib/armv7-m\libc_nano.a(lib_a-strstr.o)
 .bss           0x00000000        0x0 c:/siliconlabs/simplicitystudio/v4/developer/toolchains/gnu_arm/4.9_2015q3/bin/../lib/gcc/arm-none-eabi/4.9.3/../../../../arm-none-eabi/lib/armv7-m\libc_nano.a(lib_a-strstr.o)
 .text          0x00000000        0x0 c:/siliconlabs/simplicitystudio/v4/developer/toolchains/gnu_arm/4.9_2015q3/bin/../lib/gcc/arm-none-eabi/4.9.3/../../../../arm-none-eabi/lib/armv7-m\libc_nano.a(lib_a-strtok.o)
 .data          0x00000000        0x0 c:/siliconlabs/simplicitystudio/v4/developer/toolchains/gnu_arm/4.9_2015q3/bin/../lib/gcc/arm-none-eabi/4.9.3/../../../../arm-none-eabi/lib/armv7-m\libc_nano.a(lib_a-strtok.o)
 .bss           0x00000000        0x0 c:/siliconlabs/simplicitystudio/v4/developer/toolchains/gnu_arm/4.9_2015q3/bin/../lib/gcc/arm-none-eabi/4.9.3/../../../../arm-none-eabi/lib/armv7-m\libc_nano.a(lib_a-strtok.o)
 .text          0x00000000        0x0 c:/siliconlabs/simplicitystudio/v4/developer/toolchains/gnu_arm/4.9_2015q3/bin/../lib/gcc/arm-none-eabi/4.9.3/../../../../arm-none-eabi/lib/armv7-m\libc_nano.a(lib_a-strtok_r.o)
 .data          0x00000000        0x0 c:/siliconlabs/simplicitystudio/v4/developer/toolchains/gnu_arm/4.9_2015q3/bin/../lib/gcc/arm-none-eabi/4.9.3/../../../../arm-none-eabi/lib/armv7-m\libc_nano.a(lib_a-strtok_r.o)
 .bss           0x00000000        0x0 c:/siliconlabs/simplicitystudio/v4/developer/toolchains/gnu_arm/4.9_2015q3/bin/../lib/gcc/arm-none-eabi/4.9.3/../../../../arm-none-eabi/lib/armv7-m\libc_nano.a(lib_a-strtok_r.o)
 .text.strtok_r
                0x00000000        0x6 c:/siliconlabs/simplicitystudio/v4/developer/toolchains/gnu_arm/4.9_2015q3/bin/../lib/gcc/arm-none-eabi/4.9.3/../../../../arm-none-eabi/lib/armv7-m\libc_nano.a(lib_a-strtok_r.o)
 .text          0x00000000        0x0 c:/siliconlabs/simplicitystudio/v4/developer/toolchains/gnu_arm/4.9_2015q3/bin/../lib/gcc/arm-none-eabi/4.9.3/../../../../arm-none-eabi/lib/armv7-m\libc_nano.a(lib_a-strtoul.o)
 .data          0x00000000        0x0 c:/siliconlabs/simplicitystudio/v4/developer/toolchains/gnu_arm/4.9_2015q3/bin/../lib/gcc/arm-none-eabi/4.9.3/../../../../arm-none-eabi/lib/armv7-m\libc_nano.a(lib_a-strtoul.o)
 .bss           0x00000000        0x0 c:/siliconlabs/simplicitystudio/v4/developer/toolchains/gnu_arm/4.9_2015q3/bin/../lib/gcc/arm-none-eabi/4.9.3/../../../../arm-none-eabi/lib/armv7-m\libc_nano.a(lib_a-strtoul.o)
 .text          0x00000000        0x0 c:/siliconlabs/simplicitystudio/v4/developer/toolchains/gnu_arm/4.9_2015q3/bin/../lib/gcc/arm-none-eabi/4.9.3/../../../../arm-none-eabi/lib/armv7-m\libc_nano.a(lib_a-ctype_.o)
 .data          0x00000000        0x0 c:/siliconlabs/simplicitystudio/v4/developer/toolchains/gnu_arm/4.9_2015q3/bin/../lib/gcc/arm-none-eabi/4.9.3/../../../../arm-none-eabi/lib/armv7-m\libc_nano.a(lib_a-ctype_.o)
 .bss           0x00000000        0x0 c:/siliconlabs/simplicitystudio/v4/developer/toolchains/gnu_arm/4.9_2015q3/bin/../lib/gcc/arm-none-eabi/4.9.3/../../../../arm-none-eabi/lib/armv7-m\libc_nano.a(lib_a-ctype_.o)
 .text          0x00000000        0x0 c:/siliconlabs/simplicitystudio/v4/developer/toolchains/gnu_arm/4.9_2015q3/bin/../lib/gcc/arm-none-eabi/4.9.3/../../../../arm-none-eabi/lib/armv7-m\libc_nano.a(lib_a-dtoa.o)
 .data          0x00000000        0x0 c:/siliconlabs/simplicitystudio/v4/developer/toolchains/gnu_arm/4.9_2015q3/bin/../lib/gcc/arm-none-eabi/4.9.3/../../../../arm-none-eabi/lib/armv7-m\libc_nano.a(lib_a-dtoa.o)
 .bss           0x00000000        0x0 c:/siliconlabs/simplicitystudio/v4/developer/toolchains/gnu_arm/4.9_2015q3/bin/../lib/gcc/arm-none-eabi/4.9.3/../../../../arm-none-eabi/lib/armv7-m\libc_nano.a(lib_a-dtoa.o)
 .text          0x00000000        0x0 c:/siliconlabs/simplicitystudio/v4/developer/toolchains/gnu_arm/4.9_2015q3/bin/../lib/gcc/arm-none-eabi/4.9.3/../../../../arm-none-eabi/lib/armv7-m\libc_nano.a(lib_a-locale.o)
 .data          0x00000000        0x0 c:/siliconlabs/simplicitystudio/v4/developer/toolchains/gnu_arm/4.9_2015q3/bin/../lib/gcc/arm-none-eabi/4.9.3/../../../../arm-none-eabi/lib/armv7-m\libc_nano.a(lib_a-locale.o)
 .bss           0x00000000        0x0 c:/siliconlabs/simplicitystudio/v4/developer/toolchains/gnu_arm/4.9_2015q3/bin/../lib/gcc/arm-none-eabi/4.9.3/../../../../arm-none-eabi/lib/armv7-m\libc_nano.a(lib_a-locale.o)
 .text._setlocale_r
                0x00000000       0x40 c:/siliconlabs/simplicitystudio/v4/developer/toolchains/gnu_arm/4.9_2015q3/bin/../lib/gcc/arm-none-eabi/4.9.3/../../../../arm-none-eabi/lib/armv7-m\libc_nano.a(lib_a-locale.o)
 .text.__locale_charset
                0x00000000        0x8 c:/siliconlabs/simplicitystudio/v4/developer/toolchains/gnu_arm/4.9_2015q3/bin/../lib/gcc/arm-none-eabi/4.9.3/../../../../arm-none-eabi/lib/armv7-m\libc_nano.a(lib_a-locale.o)
 .text.__locale_mb_cur_max
                0x00000000        0xc c:/siliconlabs/simplicitystudio/v4/developer/toolchains/gnu_arm/4.9_2015q3/bin/../lib/gcc/arm-none-eabi/4.9.3/../../../../arm-none-eabi/lib/armv7-m\libc_nano.a(lib_a-locale.o)
 .text.__locale_msgcharset
                0x00000000        0x8 c:/siliconlabs/simplicitystudio/v4/developer/toolchains/gnu_arm/4.9_2015q3/bin/../lib/gcc/arm-none-eabi/4.9.3/../../../../arm-none-eabi/lib/armv7-m\libc_nano.a(lib_a-locale.o)
 .text.__locale_cjk_lang
                0x00000000        0x4 c:/siliconlabs/simplicitystudio/v4/developer/toolchains/gnu_arm/4.9_2015q3/bin/../lib/gcc/arm-none-eabi/4.9.3/../../../../arm-none-eabi/lib/armv7-m\libc_nano.a(lib_a-locale.o)
 .text.setlocale
                0x00000000       0x14 c:/siliconlabs/simplicitystudio/v4/developer/toolchains/gnu_arm/4.9_2015q3/bin/../lib/gcc/arm-none-eabi/4.9.3/../../../../arm-none-eabi/lib/armv7-m\libc_nano.a(lib_a-locale.o)
 .text.localeconv
                0x00000000        0x8 c:/siliconlabs/simplicitystudio/v4/developer/toolchains/gnu_arm/4.9_2015q3/bin/../lib/gcc/arm-none-eabi/4.9.3/../../../../arm-none-eabi/lib/armv7-m\libc_nano.a(lib_a-locale.o)
 .data.lc_message_charset
                0x00000000       0x20 c:/siliconlabs/simplicitystudio/v4/developer/toolchains/gnu_arm/4.9_2015q3/bin/../lib/gcc/arm-none-eabi/4.9.3/../../../../arm-none-eabi/lib/armv7-m\libc_nano.a(lib_a-locale.o)
 .bss._PathLocale
                0x00000000        0x4 c:/siliconlabs/simplicitystudio/v4/developer/toolchains/gnu_arm/4.9_2015q3/bin/../lib/gcc/arm-none-eabi/4.9.3/../../../../arm-none-eabi/lib/armv7-m\libc_nano.a(lib_a-locale.o)
 .bss.__nlocale_changed
                0x00000000        0x4 c:/siliconlabs/simplicitystudio/v4/developer/toolchains/gnu_arm/4.9_2015q3/bin/../lib/gcc/arm-none-eabi/4.9.3/../../../../arm-none-eabi/lib/armv7-m\libc_nano.a(lib_a-locale.o)
 .bss.__mlocale_changed
                0x00000000        0x4 c:/siliconlabs/simplicitystudio/v4/developer/toolchains/gnu_arm/4.9_2015q3/bin/../lib/gcc/arm-none-eabi/4.9.3/../../../../arm-none-eabi/lib/armv7-m\libc_nano.a(lib_a-locale.o)
 .data.lc_ctype_charset
                0x00000000       0x20 c:/siliconlabs/simplicitystudio/v4/developer/toolchains/gnu_arm/4.9_2015q3/bin/../lib/gcc/arm-none-eabi/4.9.3/../../../../arm-none-eabi/lib/armv7-m\libc_nano.a(lib_a-locale.o)
 .data.__mb_cur_max
                0x00000000        0x4 c:/siliconlabs/simplicitystudio/v4/developer/toolchains/gnu_arm/4.9_2015q3/bin/../lib/gcc/arm-none-eabi/4.9.3/../../../../arm-none-eabi/lib/armv7-m\libc_nano.a(lib_a-locale.o)
 .text          0x00000000        0x0 c:/siliconlabs/simplicitystudio/v4/developer/toolchains/gnu_arm/4.9_2015q3/bin/../lib/gcc/arm-none-eabi/4.9.3/../../../../arm-none-eabi/lib/armv7-m\libc_nano.a(lib_a-malloc.o)
 .data          0x00000000        0x0 c:/siliconlabs/simplicitystudio/v4/developer/toolchains/gnu_arm/4.9_2015q3/bin/../lib/gcc/arm-none-eabi/4.9.3/../../../../arm-none-eabi/lib/armv7-m\libc_nano.a(lib_a-malloc.o)
 .bss           0x00000000        0x0 c:/siliconlabs/simplicitystudio/v4/developer/toolchains/gnu_arm/4.9_2015q3/bin/../lib/gcc/arm-none-eabi/4.9.3/../../../../arm-none-eabi/lib/armv7-m\libc_nano.a(lib_a-malloc.o)
 .text.free     0x00000000       0x10 c:/siliconlabs/simplicitystudio/v4/developer/toolchains/gnu_arm/4.9_2015q3/bin/../lib/gcc/arm-none-eabi/4.9.3/../../../../arm-none-eabi/lib/armv7-m\libc_nano.a(lib_a-malloc.o)
 .text          0x00000000        0x0 c:/siliconlabs/simplicitystudio/v4/developer/toolchains/gnu_arm/4.9_2015q3/bin/../lib/gcc/arm-none-eabi/4.9.3/../../../../arm-none-eabi/lib/armv7-m\libc_nano.a(lib_a-memchr.o)
 .data          0x00000000        0x0 c:/siliconlabs/simplicitystudio/v4/developer/toolchains/gnu_arm/4.9_2015q3/bin/../lib/gcc/arm-none-eabi/4.9.3/../../../../arm-none-eabi/lib/armv7-m\libc_nano.a(lib_a-memchr.o)
 .bss           0x00000000        0x0 c:/siliconlabs/simplicitystudio/v4/developer/toolchains/gnu_arm/4.9_2015q3/bin/../lib/gcc/arm-none-eabi/4.9.3/../../../../arm-none-eabi/lib/armv7-m\libc_nano.a(lib_a-memchr.o)
 .text          0x00000000        0x0 c:/siliconlabs/simplicitystudio/v4/developer/toolchains/gnu_arm/4.9_2015q3/bin/../lib/gcc/arm-none-eabi/4.9.3/../../../../arm-none-eabi/lib/armv7-m\libc_nano.a(lib_a-mprec.o)
 .data          0x00000000        0x0 c:/siliconlabs/simplicitystudio/v4/developer/toolchains/gnu_arm/4.9_2015q3/bin/../lib/gcc/arm-none-eabi/4.9.3/../../../../arm-none-eabi/lib/armv7-m\libc_nano.a(lib_a-mprec.o)
 .bss           0x00000000        0x0 c:/siliconlabs/simplicitystudio/v4/developer/toolchains/gnu_arm/4.9_2015q3/bin/../lib/gcc/arm-none-eabi/4.9.3/../../../../arm-none-eabi/lib/armv7-m\libc_nano.a(lib_a-mprec.o)
 .text.__s2b    0x00000000       0x80 c:/siliconlabs/simplicitystudio/v4/developer/toolchains/gnu_arm/4.9_2015q3/bin/../lib/gcc/arm-none-eabi/4.9.3/../../../../arm-none-eabi/lib/armv7-m\libc_nano.a(lib_a-mprec.o)
 .text.__ulp    0x00000000       0x48 c:/siliconlabs/simplicitystudio/v4/developer/toolchains/gnu_arm/4.9_2015q3/bin/../lib/gcc/arm-none-eabi/4.9.3/../../../../arm-none-eabi/lib/armv7-m\libc_nano.a(lib_a-mprec.o)
 .text.__b2d    0x00000000       0x9e c:/siliconlabs/simplicitystudio/v4/developer/toolchains/gnu_arm/4.9_2015q3/bin/../lib/gcc/arm-none-eabi/4.9.3/../../../../arm-none-eabi/lib/armv7-m\libc_nano.a(lib_a-mprec.o)
 .text.__ratio  0x00000000       0x50 c:/siliconlabs/simplicitystudio/v4/developer/toolchains/gnu_arm/4.9_2015q3/bin/../lib/gcc/arm-none-eabi/4.9.3/../../../../arm-none-eabi/lib/armv7-m\libc_nano.a(lib_a-mprec.o)
 .text._mprec_log10
                0x00000000       0x34 c:/siliconlabs/simplicitystudio/v4/developer/toolchains/gnu_arm/4.9_2015q3/bin/../lib/gcc/arm-none-eabi/4.9.3/../../../../arm-none-eabi/lib/armv7-m\libc_nano.a(lib_a-mprec.o)
 .text.__copybits
                0x00000000       0x34 c:/siliconlabs/simplicitystudio/v4/developer/toolchains/gnu_arm/4.9_2015q3/bin/../lib/gcc/arm-none-eabi/4.9.3/../../../../arm-none-eabi/lib/armv7-m\libc_nano.a(lib_a-mprec.o)
 .text.__any_on
                0x00000000       0x44 c:/siliconlabs/simplicitystudio/v4/developer/toolchains/gnu_arm/4.9_2015q3/bin/../lib/gcc/arm-none-eabi/4.9.3/../../../../arm-none-eabi/lib/armv7-m\libc_nano.a(lib_a-mprec.o)
 .rodata.__mprec_tinytens
                0x00000000       0x28 c:/siliconlabs/simplicitystudio/v4/developer/toolchains/gnu_arm/4.9_2015q3/bin/../lib/gcc/arm-none-eabi/4.9.3/../../../../arm-none-eabi/lib/armv7-m\libc_nano.a(lib_a-mprec.o)
 .text          0x00000000        0x0 c:/siliconlabs/simplicitystudio/v4/developer/toolchains/gnu_arm/4.9_2015q3/bin/../lib/gcc/arm-none-eabi/4.9.3/../../../../arm-none-eabi/lib/armv7-m\libc_nano.a(lib_a-nano-callocr.o)
 .data          0x00000000        0x0 c:/siliconlabs/simplicitystudio/v4/developer/toolchains/gnu_arm/4.9_2015q3/bin/../lib/gcc/arm-none-eabi/4.9.3/../../../../arm-none-eabi/lib/armv7-m\libc_nano.a(lib_a-nano-callocr.o)
 .bss           0x00000000        0x0 c:/siliconlabs/simplicitystudio/v4/developer/toolchains/gnu_arm/4.9_2015q3/bin/../lib/gcc/arm-none-eabi/4.9.3/../../../../arm-none-eabi/lib/armv7-m\libc_nano.a(lib_a-nano-callocr.o)
 .text          0x00000000        0x0 c:/siliconlabs/simplicitystudio/v4/developer/toolchains/gnu_arm/4.9_2015q3/bin/../lib/gcc/arm-none-eabi/4.9.3/../../../../arm-none-eabi/lib/armv7-m\libc_nano.a(lib_a-nano-freer.o)
 .data          0x00000000        0x0 c:/siliconlabs/simplicitystudio/v4/developer/toolchains/gnu_arm/4.9_2015q3/bin/../lib/gcc/arm-none-eabi/4.9.3/../../../../arm-none-eabi/lib/armv7-m\libc_nano.a(lib_a-nano-freer.o)
 .bss           0x00000000        0x0 c:/siliconlabs/simplicitystudio/v4/developer/toolchains/gnu_arm/4.9_2015q3/bin/../lib/gcc/arm-none-eabi/4.9.3/../../../../arm-none-eabi/lib/armv7-m\libc_nano.a(lib_a-nano-freer.o)
 .text          0x00000000        0x0 c:/siliconlabs/simplicitystudio/v4/developer/toolchains/gnu_arm/4.9_2015q3/bin/../lib/gcc/arm-none-eabi/4.9.3/../../../../arm-none-eabi/lib/armv7-m\libc_nano.a(lib_a-nano-mallocr.o)
 .data          0x00000000        0x0 c:/siliconlabs/simplicitystudio/v4/developer/toolchains/gnu_arm/4.9_2015q3/bin/../lib/gcc/arm-none-eabi/4.9.3/../../../../arm-none-eabi/lib/armv7-m\libc_nano.a(lib_a-nano-mallocr.o)
 .bss           0x00000000        0x0 c:/siliconlabs/simplicitystudio/v4/developer/toolchains/gnu_arm/4.9_2015q3/bin/../lib/gcc/arm-none-eabi/4.9.3/../../../../arm-none-eabi/lib/armv7-m\libc_nano.a(lib_a-nano-mallocr.o)
 .text          0x00000000        0x0 c:/siliconlabs/simplicitystudio/v4/developer/toolchains/gnu_arm/4.9_2015q3/bin/../lib/gcc/arm-none-eabi/4.9.3/../../../../arm-none-eabi/lib/armv7-m\libc_nano.a(lib_a-nano-svfprintf.o)
 .data          0x00000000        0x0 c:/siliconlabs/simplicitystudio/v4/developer/toolchains/gnu_arm/4.9_2015q3/bin/../lib/gcc/arm-none-eabi/4.9.3/../../../../arm-none-eabi/lib/armv7-m\libc_nano.a(lib_a-nano-svfprintf.o)
 .bss           0x00000000        0x0 c:/siliconlabs/simplicitystudio/v4/developer/toolchains/gnu_arm/4.9_2015q3/bin/../lib/gcc/arm-none-eabi/4.9.3/../../../../arm-none-eabi/lib/armv7-m\libc_nano.a(lib_a-nano-svfprintf.o)
 .text.__ssprint_r
                0x00000000       0xfe c:/siliconlabs/simplicitystudio/v4/developer/toolchains/gnu_arm/4.9_2015q3/bin/../lib/gcc/arm-none-eabi/4.9.3/../../../../arm-none-eabi/lib/armv7-m\libc_nano.a(lib_a-nano-svfprintf.o)
 .text          0x00000000        0x0 c:/siliconlabs/simplicitystudio/v4/developer/toolchains/gnu_arm/4.9_2015q3/bin/../lib/gcc/arm-none-eabi/4.9.3/../../../../arm-none-eabi/lib/armv7-m\libc_nano.a(lib_a-sbrkr.o)
 .data          0x00000000        0x0 c:/siliconlabs/simplicitystudio/v4/developer/toolchains/gnu_arm/4.9_2015q3/bin/../lib/gcc/arm-none-eabi/4.9.3/../../../../arm-none-eabi/lib/armv7-m\libc_nano.a(lib_a-sbrkr.o)
 .bss           0x00000000        0x0 c:/siliconlabs/simplicitystudio/v4/developer/toolchains/gnu_arm/4.9_2015q3/bin/../lib/gcc/arm-none-eabi/4.9.3/../../../../arm-none-eabi/lib/armv7-m\libc_nano.a(lib_a-sbrkr.o)
 .text          0x00000000       0x14 c:/siliconlabs/simplicitystudio/v4/developer/toolchains/gnu_arm/4.9_2015q3/bin/../lib/gcc/arm-none-eabi/4.9.3/../../../../arm-none-eabi/lib/armv7-m\libc_nano.a(lib_a-strcmp.o)
 .data          0x00000000        0x0 c:/siliconlabs/simplicitystudio/v4/developer/toolchains/gnu_arm/4.9_2015q3/bin/../lib/gcc/arm-none-eabi/4.9.3/../../../../arm-none-eabi/lib/armv7-m\libc_nano.a(lib_a-strcmp.o)
 .bss           0x00000000        0x0 c:/siliconlabs/simplicitystudio/v4/developer/toolchains/gnu_arm/4.9_2015q3/bin/../lib/gcc/arm-none-eabi/4.9.3/../../../../arm-none-eabi/lib/armv7-m\libc_nano.a(lib_a-strcmp.o)
 .text          0x00000000        0x0 c:/siliconlabs/simplicitystudio/v4/developer/toolchains/gnu_arm/4.9_2015q3/bin/../lib/gcc/arm-none-eabi/4.9.3/../../../../arm-none-eabi/lib/armv7-m\libc_nano.a(lib_a-memmove.o)
 .data          0x00000000        0x0 c:/siliconlabs/simplicitystudio/v4/developer/toolchains/gnu_arm/4.9_2015q3/bin/../lib/gcc/arm-none-eabi/4.9.3/../../../../arm-none-eabi/lib/armv7-m\libc_nano.a(lib_a-memmove.o)
 .bss           0x00000000        0x0 c:/siliconlabs/simplicitystudio/v4/developer/toolchains/gnu_arm/4.9_2015q3/bin/../lib/gcc/arm-none-eabi/4.9.3/../../../../arm-none-eabi/lib/armv7-m\libc_nano.a(lib_a-memmove.o)
 .text          0x00000000        0x0 c:/siliconlabs/simplicitystudio/v4/developer/toolchains/gnu_arm/4.9_2015q3/bin/../lib/gcc/arm-none-eabi/4.9.3/../../../../arm-none-eabi/lib/armv7-m\libc_nano.a(lib_a-nano-reallocr.o)
 .data          0x00000000        0x0 c:/siliconlabs/simplicitystudio/v4/developer/toolchains/gnu_arm/4.9_2015q3/bin/../lib/gcc/arm-none-eabi/4.9.3/../../../../arm-none-eabi/lib/armv7-m\libc_nano.a(lib_a-nano-reallocr.o)
 .bss           0x00000000        0x0 c:/siliconlabs/simplicitystudio/v4/developer/toolchains/gnu_arm/4.9_2015q3/bin/../lib/gcc/arm-none-eabi/4.9.3/../../../../arm-none-eabi/lib/armv7-m\libc_nano.a(lib_a-nano-reallocr.o)
 .text          0x00000000        0x0 c:/siliconlabs/simplicitystudio/v4/developer/toolchains/gnu_arm/4.9_2015q3/bin/../lib/gcc/arm-none-eabi/4.9.3/../../../../arm-none-eabi/lib/armv7-m\libc_nano.a(lib_a-reent.o)
 .data          0x00000000        0x0 c:/siliconlabs/simplicitystudio/v4/developer/toolchains/gnu_arm/4.9_2015q3/bin/../lib/gcc/arm-none-eabi/4.9.3/../../../../arm-none-eabi/lib/armv7-m\libc_nano.a(lib_a-reent.o)
 .bss           0x00000000        0x0 c:/siliconlabs/simplicitystudio/v4/developer/toolchains/gnu_arm/4.9_2015q3/bin/../lib/gcc/arm-none-eabi/4.9.3/../../../../arm-none-eabi/lib/armv7-m\libc_nano.a(lib_a-reent.o)
 .text.cleanup_glue
                0x00000000       0x1a c:/siliconlabs/simplicitystudio/v4/developer/toolchains/gnu_arm/4.9_2015q3/bin/../lib/gcc/arm-none-eabi/4.9.3/../../../../arm-none-eabi/lib/armv7-m\libc_nano.a(lib_a-reent.o)
 .text._reclaim_reent
                0x00000000       0xb4 c:/siliconlabs/simplicitystudio/v4/developer/toolchains/gnu_arm/4.9_2015q3/bin/../lib/gcc/arm-none-eabi/4.9.3/../../../../arm-none-eabi/lib/armv7-m\libc_nano.a(lib_a-reent.o)
 .text          0x00000000        0x0 c:/siliconlabs/simplicitystudio/v4/developer/toolchains/gnu_arm/4.9_2015q3/bin/../lib/gcc/arm-none-eabi/4.9.3/../../../../arm-none-eabi/lib/armv7-m\libc_nano.a(lib_a-nano-msizer.o)
 .data          0x00000000        0x0 c:/siliconlabs/simplicitystudio/v4/developer/toolchains/gnu_arm/4.9_2015q3/bin/../lib/gcc/arm-none-eabi/4.9.3/../../../../arm-none-eabi/lib/armv7-m\libc_nano.a(lib_a-nano-msizer.o)
 .bss           0x00000000        0x0 c:/siliconlabs/simplicitystudio/v4/developer/toolchains/gnu_arm/4.9_2015q3/bin/../lib/gcc/arm-none-eabi/4.9.3/../../../../arm-none-eabi/lib/armv7-m\libc_nano.a(lib_a-nano-msizer.o)
 .text          0x00000000        0x0 c:/siliconlabs/simplicitystudio/v4/developer/toolchains/gnu_arm/4.9_2015q3/bin/../lib/gcc/arm-none-eabi/4.9.3/../../../../arm-none-eabi/lib/armv7-m\libnosys.a(sbrk.o)
 .data          0x00000000        0x0 c:/siliconlabs/simplicitystudio/v4/developer/toolchains/gnu_arm/4.9_2015q3/bin/../lib/gcc/arm-none-eabi/4.9.3/../../../../arm-none-eabi/lib/armv7-m\libnosys.a(sbrk.o)
 .bss           0x00000000        0x0 c:/siliconlabs/simplicitystudio/v4/developer/toolchains/gnu_arm/4.9_2015q3/bin/../lib/gcc/arm-none-eabi/4.9.3/../../../../arm-none-eabi/lib/armv7-m\libnosys.a(sbrk.o)
 .text          0x00000000        0x0 c:/siliconlabs/simplicitystudio/v4/developer/toolchains/gnu_arm/4.9_2015q3/bin/../lib/gcc/arm-none-eabi/4.9.3/../../../../arm-none-eabi/lib/armv7-m\libnosys.a(_exit.o)
 .data          0x00000000        0x0 c:/siliconlabs/simplicitystudio/v4/developer/toolchains/gnu_arm/4.9_2015q3/bin/../lib/gcc/arm-none-eabi/4.9.3/../../../../arm-none-eabi/lib/armv7-m\libnosys.a(_exit.o)
 .bss           0x00000000        0x0 c:/siliconlabs/simplicitystudio/v4/developer/toolchains/gnu_arm/4.9_2015q3/bin/../lib/gcc/arm-none-eabi/4.9.3/../../../../arm-none-eabi/lib/armv7-m\libnosys.a(_exit.o)
 .data          0x00000000        0x0 c:/siliconlabs/simplicitystudio/v4/developer/toolchains/gnu_arm/4.9_2015q3/bin/../lib/gcc/arm-none-eabi/4.9.3/armv7-m\libgcc.a(_arm_muldivdf3.o)
 .bss           0x00000000        0x0 c:/siliconlabs/simplicitystudio/v4/developer/toolchains/gnu_arm/4.9_2015q3/bin/../lib/gcc/arm-none-eabi/4.9.3/armv7-m\libgcc.a(_arm_muldivdf3.o)
 .data          0x00000000        0x0 c:/siliconlabs/simplicitystudio/v4/developer/toolchains/gnu_arm/4.9_2015q3/bin/../lib/gcc/arm-none-eabi/4.9.3/armv7-m\libgcc.a(_arm_cmpdf2.o)
 .bss           0x00000000        0x0 c:/siliconlabs/simplicitystudio/v4/developer/toolchains/gnu_arm/4.9_2015q3/bin/../lib/gcc/arm-none-eabi/4.9.3/armv7-m\libgcc.a(_arm_cmpdf2.o)
 .data          0x00000000        0x0 c:/siliconlabs/simplicitystudio/v4/developer/toolchains/gnu_arm/4.9_2015q3/bin/../lib/gcc/arm-none-eabi/4.9.3/armv7-m\libgcc.a(_arm_fixdfsi.o)
 .bss           0x00000000        0x0 c:/siliconlabs/simplicitystudio/v4/developer/toolchains/gnu_arm/4.9_2015q3/bin/../lib/gcc/arm-none-eabi/4.9.3/armv7-m\libgcc.a(_arm_fixdfsi.o)
 .text          0x00000000        0x0 c:/siliconlabs/simplicitystudio/v4/developer/toolchains/gnu_arm/4.9_2015q3/bin/../lib/gcc/arm-none-eabi/4.9.3/armv7-m/crtend.o
 .data          0x00000000        0x0 c:/siliconlabs/simplicitystudio/v4/developer/toolchains/gnu_arm/4.9_2015q3/bin/../lib/gcc/arm-none-eabi/4.9.3/armv7-m/crtend.o
 .bss           0x00000000        0x0 c:/siliconlabs/simplicitystudio/v4/developer/toolchains/gnu_arm/4.9_2015q3/bin/../lib/gcc/arm-none-eabi/4.9.3/armv7-m/crtend.o
 .text          0x00000000        0x0 c:/siliconlabs/simplicitystudio/v4/developer/toolchains/gnu_arm/4.9_2015q3/bin/../lib/gcc/arm-none-eabi/4.9.3/armv7-m/crtn.o
 .data          0x00000000        0x0 c:/siliconlabs/simplicitystudio/v4/developer/toolchains/gnu_arm/4.9_2015q3/bin/../lib/gcc/arm-none-eabi/4.9.3/armv7-m/crtn.o
 .bss           0x00000000        0x0 c:/siliconlabs/simplicitystudio/v4/developer/toolchains/gnu_arm/4.9_2015q3/bin/../lib/gcc/arm-none-eabi/4.9.3/armv7-m/crtn.o

Memory Configuration

Name             Origin             Length             Attributes
FLASH            0x00000000         0x00100000         xr
RAM              0x20000000         0x00020000         xrw
*default*        0x00000000         0xffffffff

Linker script and memory map

LOAD c:/siliconlabs/simplicitystudio/v4/developer/toolchains/gnu_arm/4.9_2015q3/bin/../lib/gcc/arm-none-eabi/4.9.3/armv7-m/crti.o
LOAD c:/siliconlabs/simplicitystudio/v4/developer/toolchains/gnu_arm/4.9_2015q3/bin/../lib/gcc/arm-none-eabi/4.9.3/armv7-m/crtbegin.o
LOAD c:/siliconlabs/simplicitystudio/v4/developer/toolchains/gnu_arm/4.9_2015q3/bin/../lib/gcc/arm-none-eabi/4.9.3/../../../../arm-none-eabi/lib/armv7-m/crt0.o
LOAD ./CMSIS/EFM32GG/startup_efm32gg.o
LOAD ./CMSIS/EFM32GG/system_efm32gg.o
LOAD ./devices_src/rgb_led.o
LOAD ./devices_src/sd_card.o
LOAD ./devices_src/tbr.o
LOAD ./devices_src/ublox_gps.o
LOAD ./drivers_src/delay.o
LOAD ./drivers_src/pwm.o
LOAD ./drivers_src/rs232.o
LOAD ./drivers_src/rs485.o
LOAD ./drivers_src/spi.o
LOAD ./emlib/src/em_acmp.o
LOAD ./emlib/src/em_adc.o
LOAD ./emlib/src/em_aes.o
LOAD ./emlib/src/em_assert.o
LOAD ./emlib/src/em_burtc.o
LOAD ./emlib/src/em_can.o
LOAD ./emlib/src/em_cmu.o
LOAD ./emlib/src/em_core.o
LOAD ./emlib/src/em_cryotimer.o
LOAD ./emlib/src/em_crypto.o
LOAD ./emlib/src/em_csen.o
LOAD ./emlib/src/em_dac.o
LOAD ./emlib/src/em_dbg.o
LOAD ./emlib/src/em_dma.o
LOAD ./emlib/src/em_ebi.o
LOAD ./emlib/src/em_emu.o
LOAD ./emlib/src/em_gpcrc.o
LOAD ./emlib/src/em_gpio.o
LOAD ./emlib/src/em_i2c.o
LOAD ./emlib/src/em_idac.o
LOAD ./emlib/src/em_int.o
LOAD ./emlib/src/em_lcd.o
LOAD ./emlib/src/em_ldma.o
LOAD ./emlib/src/em_lesense.o
LOAD ./emlib/src/em_letimer.o
LOAD ./emlib/src/em_leuart.o
LOAD ./emlib/src/em_mpu.o
LOAD ./emlib/src/em_msc.o
LOAD ./emlib/src/em_opamp.o
LOAD ./emlib/src/em_pcnt.o
LOAD ./emlib/src/em_prs.o
LOAD ./emlib/src/em_qspi.o
LOAD ./emlib/src/em_rmu.o
LOAD ./emlib/src/em_rtc.o
LOAD ./emlib/src/em_rtcc.o
LOAD ./emlib/src/em_system.o
LOAD ./emlib/src/em_timer.o
LOAD ./emlib/src/em_usart.o
LOAD ./emlib/src/em_vcmp.o
LOAD ./emlib/src/em_vdac.o
LOAD ./emlib/src/em_wdog.o
LOAD ./fat_filesystem_src/diskio.o
LOAD ./fat_filesystem_src/ff.o
LOAD ./fifo_buffers_src/fifo_rs232.o
LOAD ./fifo_buffers_src/fifo_tbr.o
LOAD ./hal/debug.o
LOAD ./hal/hal.o
LOAD ./lmic/aes.o
LOAD ./lmic/lmic.o
LOAD ./lmic/oslmic.o
LOAD ./lmic/radio.o
LOAD ./resource managers_src/app_manager.o
LOAD ./resource managers_src/lpwan_manager.o
LOAD ./src/main.o
START GROUP
LOAD c:/siliconlabs/simplicitystudio/v4/developer/toolchains/gnu_arm/4.9_2015q3/bin/../lib/gcc/arm-none-eabi/4.9.3/armv7-m\libgcc.a
LOAD c:/siliconlabs/simplicitystudio/v4/developer/toolchains/gnu_arm/4.9_2015q3/bin/../lib/gcc/arm-none-eabi/4.9.3/../../../../arm-none-eabi/lib/armv7-m\libc_nano.a
LOAD c:/siliconlabs/simplicitystudio/v4/developer/toolchains/gnu_arm/4.9_2015q3/bin/../lib/gcc/arm-none-eabi/4.9.3/../../../../arm-none-eabi/lib/armv7-m\libnosys.a
END GROUP
START GROUP
LOAD c:/siliconlabs/simplicitystudio/v4/developer/toolchains/gnu_arm/4.9_2015q3/bin/../lib/gcc/arm-none-eabi/4.9.3/armv7-m\libgcc.a
LOAD c:/siliconlabs/simplicitystudio/v4/developer/toolchains/gnu_arm/4.9_2015q3/bin/../lib/gcc/arm-none-eabi/4.9.3/../../../../arm-none-eabi/lib/armv7-m\libg_nano.a
LOAD c:/siliconlabs/simplicitystudio/v4/developer/toolchains/gnu_arm/4.9_2015q3/bin/../lib/gcc/arm-none-eabi/4.9.3/../../../../arm-none-eabi/lib/armv7-m\libc_nano.a
END GROUP
START GROUP
LOAD c:/siliconlabs/simplicitystudio/v4/developer/toolchains/gnu_arm/4.9_2015q3/bin/../lib/gcc/arm-none-eabi/4.9.3/armv7-m\libgcc.a
LOAD c:/siliconlabs/simplicitystudio/v4/developer/toolchains/gnu_arm/4.9_2015q3/bin/../lib/gcc/arm-none-eabi/4.9.3/../../../../arm-none-eabi/lib/armv7-m\libc_nano.a
END GROUP
LOAD c:/siliconlabs/simplicitystudio/v4/developer/toolchains/gnu_arm/4.9_2015q3/bin/../lib/gcc/arm-none-eabi/4.9.3/armv7-m/crtend.o
LOAD c:/siliconlabs/simplicitystudio/v4/developer/toolchains/gnu_arm/4.9_2015q3/bin/../lib/gcc/arm-none-eabi/4.9.3/armv7-m/crtn.o

.text           0x00000000     0xd7ec
 *(.vectors)
 .vectors       0x00000000       0xdc ./CMSIS/EFM32GG/startup_efm32gg.o
                0x00000000                __Vectors
                0x000000dc                __Vectors_End = .
                0x000000dc                __Vectors_Size = (__Vectors_End - __Vectors)
                0x000000dc                __end__ = .
 *(.text*)
 .text          0x000000dc       0x5c c:/siliconlabs/simplicitystudio/v4/developer/toolchains/gnu_arm/4.9_2015q3/bin/../lib/gcc/arm-none-eabi/4.9.3/armv7-m/crtbegin.o
 .text          0x00000138       0x74 c:/siliconlabs/simplicitystudio/v4/developer/toolchains/gnu_arm/4.9_2015q3/bin/../lib/gcc/arm-none-eabi/4.9.3/../../../../arm-none-eabi/lib/armv7-m/crt0.o
                0x00000138                _start
                0x00000138                _mainCRTStartup
 .text          0x000001ac       0x30 ./CMSIS/EFM32GG/startup_efm32gg.o
                0x000001ac                Reset_Handler
                0x000001d8                DebugMon_Handler
                0x000001d8                USART0_TX_IRQHandler
                0x000001d8                I2C0_IRQHandler
                0x000001d8                HardFault_Handler
                0x000001d8                LEUART1_IRQHandler
                0x000001d8                SysTick_Handler
                0x000001d8                USART1_RX_IRQHandler
                0x000001d8                PendSV_Handler
                0x000001d8                NMI_Handler
                0x000001d8                I2C1_IRQHandler
                0x000001d8                TIMER3_IRQHandler
                0x000001d8                USART1_TX_IRQHandler
                0x000001d8                MSC_IRQHandler
                0x000001d8                ADC0_IRQHandler
                0x000001d8                UsageFault_Handler
                0x000001d8                UART0_TX_IRQHandler
                0x000001d8                UART1_TX_IRQHandler
                0x000001d8                TIMER0_IRQHandler
                0x000001d8                TIMER2_IRQHandler
                0x000001d8                LCD_IRQHandler
                0x000001d8                PCNT2_IRQHandler
                0x000001d8                UART0_RX_IRQHandler
                0x000001d8                LETIMER0_IRQHandler
                0x000001d8                TIMER1_IRQHandler
                0x000001d8                Default_Handler
                0x000001d8                EMU_IRQHandler
                0x000001d8                PCNT0_IRQHandler
                0x000001d8                USB_IRQHandler
                0x000001d8                PCNT1_IRQHandler
                0x000001d8                ACMP0_IRQHandler
                0x000001d8                USART0_RX_IRQHandler
                0x000001d8                MemManage_Handler
                0x000001d8                SVC_Handler
                0x000001d8                DAC0_IRQHandler
                0x000001d8                UART1_RX_IRQHandler
                0x000001d8                CMU_IRQHandler
                0x000001d8                EBI_IRQHandler
                0x000001d8                LESENSE_IRQHandler
                0x000001d8                AES_IRQHandler
                0x000001d8                VCMP_IRQHandler
                0x000001d8                BusFault_Handler
 .text.GetProdRev
                0x000001dc       0x1c ./CMSIS/EFM32GG/system_efm32gg.o
 .text.SystemCoreClockGet
                0x000001f8       0x34 ./CMSIS/EFM32GG/system_efm32gg.o
                0x000001f8                SystemCoreClockGet
 .text.SystemMaxCoreClockGet
                0x0000022c       0x14 ./CMSIS/EFM32GG/system_efm32gg.o
                0x0000022c                SystemMaxCoreClockGet
 .text.SystemHFClockGet
                0x00000240      0x100 ./CMSIS/EFM32GG/system_efm32gg.o
                0x00000240                SystemHFClockGet
 .text.SystemHFXOClockGet
                0x00000340       0x18 ./CMSIS/EFM32GG/system_efm32gg.o
                0x00000340                SystemHFXOClockGet
 .text.SystemInit
                0x00000358        0xc ./CMSIS/EFM32GG/system_efm32gg.o
                0x00000358                SystemInit
 .text.SystemLFRCOClockGet
                0x00000364       0x14 ./CMSIS/EFM32GG/system_efm32gg.o
                0x00000364                SystemLFRCOClockGet
 .text.SystemULFRCOClockGet
                0x00000378       0x14 ./CMSIS/EFM32GG/system_efm32gg.o
                0x00000378                SystemULFRCOClockGet
 .text.SystemLFXOClockGet
                0x0000038c       0x18 ./CMSIS/EFM32GG/system_efm32gg.o
                0x0000038c                SystemLFXOClockGet
 .text.GPIO_PinOutClear
                0x000003a4       0x58 ./devices_src/rgb_led.o
 .text.GPIO_PinOutSet
                0x000003fc       0x58 ./devices_src/rgb_led.o
 .text.generate_pulses
                0x00000454       0x50 ./devices_src/rgb_led.o
                0x00000454                generate_pulses
 .text.rgb_init
                0x000004a4       0x34 ./devices_src/rgb_led.o
                0x000004a4                rgb_init
 .text.rgb_on   0x000004d8      0x110 ./devices_src/rgb_led.o
                0x000004d8                rgb_on
 .text.rgb_shutdown
                0x000005e8       0x18 ./devices_src/rgb_led.o
                0x000005e8                rgb_shutdown
 .text.GPIO_PinOutClear
                0x00000600       0x58 ./devices_src/sd_card.o
 .text.GPIO_PinOutSet
                0x00000658       0x58 ./devices_src/sd_card.o
 .text.start_transfer
                0x000006b0       0x10 ./devices_src/sd_card.o
                0x000006b0                start_transfer
 .text.end_transfer
                0x000006c0       0x14 ./devices_src/sd_card.o
                0x000006c0                end_transfer
 .text.send_cmd
                0x000006d4      0x24c ./devices_src/sd_card.o
                0x000006d4                send_cmd
 .text.sd_card_init
                0x00000920      0x1e0 ./devices_src/sd_card.o
                0x00000920                sd_card_init
 .text.sd_card_on
                0x00000b00       0x10 ./devices_src/sd_card.o
                0x00000b00                sd_card_on
 .text.sd_card_off
                0x00000b10       0x10 ./devices_src/sd_card.o
                0x00000b10                sd_card_off
 .text.sd_card_read
                0x00000b20      0x130 ./devices_src/sd_card.o
                0x00000b20                sd_card_read
 .text.sd_card_write
                0x00000c50      0x10c ./devices_src/sd_card.o
                0x00000c50                sd_card_write
 .text.array_is_full
                0x00000d5c       0x24 ./devices_src/tbr.o
                0x00000d5c                array_is_full
 .text.array_is_empty
                0x00000d80       0x20 ./devices_src/tbr.o
                0x00000d80                array_is_empty
 .text.array_add
                0x00000da0       0x58 ./devices_src/tbr.o
                0x00000da0                array_add
 .text.array_remove
                0x00000df8       0x5c ./devices_src/tbr.o
                0x00000df8                array_remove
 .text.CalculateLuhn
                0x00000e54      0x12c ./devices_src/tbr.o
                0x00000e54                CalculateLuhn
 .text.parse_message_tbr
                0x00000f80       0xa4 ./devices_src/tbr.o
                0x00000f80                parse_message_tbr
 .text.check_other_messages
                0x00001024       0x3c ./devices_src/tbr.o
                0x00001024                check_other_messages
 .text.clear_buffer
                0x00001060       0x3c ./devices_src/tbr.o
                0x00001060                clear_buffer
 .text.get_and_compare
                0x0000109c       0xb4 ./devices_src/tbr.o
                0x0000109c                get_and_compare
 .text.convert_single_tbr_msg_into_uint
                0x00001150      0x354 ./devices_src/tbr.o
                0x00001150                convert_single_tbr_msg_into_uint
 .text.convert_tbr_msgs_to_uint
                0x000014a4      0x184 ./devices_src/tbr.o
                0x000014a4                convert_tbr_msgs_to_uint
 .text.tbr_init
                0x00001628       0x48 ./devices_src/tbr.o
                0x00001628                tbr_init
 .text.tbr_send_cmd
                0x00001670      0x100 ./devices_src/tbr.o
                0x00001670                tbr_send_cmd
 .text.tbr_recv_msg_uint
                0x00001770       0xa4 ./devices_src/tbr.o
                0x00001770                tbr_recv_msg_uint
 .text.GPIO_PinOutSet
                0x00001814       0x58 ./devices_src/ublox_gps.o
 .text.send_cmd_rx_ack
                0x0000186c       0xfc ./devices_src/ublox_gps.o
                0x0000186c                send_cmd_rx_ack
 .text.port_config
                0x00001968       0x64 ./devices_src/ublox_gps.o
                0x00001968                port_config
 .text.receiver_nav_status
                0x000019cc       0xfc ./devices_src/ublox_gps.o
                0x000019cc                receiver_nav_status
 .text.config_low_power
                0x00001ac8       0x24 ./devices_src/ublox_gps.o
                0x00001ac8                config_low_power
 .text.enter_low_power
                0x00001aec       0x24 ./devices_src/ublox_gps.o
                0x00001aec                enter_low_power
 .text.disable_sbas
                0x00001b10       0x24 ./devices_src/ublox_gps.o
                0x00001b10                disable_sbas
 .text.poll_psm
                0x00001b34      0x130 ./devices_src/ublox_gps.o
                0x00001b34                poll_psm
 .text.parse_message
                0x00001c64      0x33c ./devices_src/ublox_gps.o
                0x00001c64                parse_message
 .text.gps_init
                0x00001fa0      0x148 ./devices_src/ublox_gps.o
                0x00001fa0                gps_init
 .text.gps_get_nav_data
                0x000020e8      0x19c ./devices_src/ublox_gps.o
                0x000020e8                gps_get_nav_data
 .text.gps_on   0x00002284       0x10 ./devices_src/ublox_gps.o
                0x00002284                gps_on
 .text.TIMER_Valid
                0x00002294       0x50 ./drivers_src/delay.o
 .text.TIMER_MaxCount
                0x000022e4       0x18 ./drivers_src/delay.o
 .text.TIMER_CounterSet
                0x000022fc       0x1c ./drivers_src/delay.o
 .text.TIMER_Enable
                0x00002318       0x2c ./drivers_src/delay.o
 .text.TIMER_IntClear
                0x00002344       0x1c ./drivers_src/delay.o
 .text.TIMER_IntEnable
                0x00002360       0x20 ./drivers_src/delay.o
 .text.TIMER_IntGetEnabled
                0x00002380       0x24 ./drivers_src/delay.o
 .text.TIMER_TopBufSet
                0x000023a4       0x1c ./drivers_src/delay.o
 .text.TIMER_TopSet
                0x000023c0       0x1c ./drivers_src/delay.o
 .text.delay_init
                0x000023dc       0x7c ./drivers_src/delay.o
                0x000023dc                delay_init
 .text.delay_enable
                0x00002458       0x14 ./drivers_src/delay.o
                0x00002458                delay_enable
 .text.delay_disable
                0x0000246c       0x14 ./drivers_src/delay.o
                0x0000246c                delay_disable
 .text.delay_ms
                0x00002480       0x64 ./drivers_src/delay.o
                0x00002480                delay_ms
 .text.TIMER_Valid
                0x000024e4       0x50 ./drivers_src/pwm.o
 .text.TIMER_MaxCount
                0x00002534       0x18 ./drivers_src/pwm.o
 .text.TIMER_CounterSet
                0x0000254c       0x1c ./drivers_src/pwm.o
 .text.TIMER_Enable
                0x00002568       0x2c ./drivers_src/pwm.o
 .text.TIMER_IntClear
                0x00002594       0x1c ./drivers_src/pwm.o
 .text.TIMER_IntEnable
                0x000025b0       0x20 ./drivers_src/pwm.o
 .text.TIMER_IntGetEnabled
                0x000025d0       0x24 ./drivers_src/pwm.o
 .text.TIMER_TopBufSet
                0x000025f4       0x1c ./drivers_src/pwm.o
 .text.TIMER_TopSet
                0x00002610       0x1c ./drivers_src/pwm.o
 .text.pwm_init
                0x0000262c       0x7c ./drivers_src/pwm.o
                0x0000262c                pwm_init
 .text.pwm_enable
                0x000026a8       0x14 ./drivers_src/pwm.o
                0x000026a8                pwm_enable
 .text.pwm_disable
                0x000026bc       0x14 ./drivers_src/pwm.o
                0x000026bc                pwm_disable
 .text.pwm_us_delay
                0x000026d0       0x5c ./drivers_src/pwm.o
                0x000026d0                pwm_us_delay
 .text.NVIC_EnableIRQ
                0x0000272c       0x30 ./drivers_src/rs232.o
 .text.NVIC_ClearPendingIRQ
                0x0000275c       0x34 ./drivers_src/rs232.o
 .text.USART_IntClear
                0x00002790       0x1c ./drivers_src/rs232.o
 .text.USART_IntDisable
                0x000027ac       0x24 ./drivers_src/rs232.o
 .text.USART_IntEnable
                0x000027d0       0x20 ./drivers_src/rs232.o
 .text.rs232_init
                0x000027f0       0xb0 ./drivers_src/rs232.o
                0x000027f0                rs232_init
 .text.rs232_enable
                0x000028a0       0x14 ./drivers_src/rs232.o
                0x000028a0                rs232_enable
 .text.rs232_transmit_string
                0x000028b4       0x6c ./drivers_src/rs232.o
                0x000028b4                rs232_transmit_string
 .text.USART2_TX_IRQHandler
                0x00002920       0x4c ./drivers_src/rs232.o
                0x00002920                USART2_TX_IRQHandler
 .text.USART2_RX_IRQHandler
                0x0000296c       0x40 ./drivers_src/rs232.o
                0x0000296c                USART2_RX_IRQHandler
 .text.NVIC_EnableIRQ
                0x000029ac       0x30 ./drivers_src/rs485.o
 .text.NVIC_ClearPendingIRQ
                0x000029dc       0x34 ./drivers_src/rs485.o
 .text.GPIO_PinOutClear
                0x00002a10       0x58 ./drivers_src/rs485.o
 .text.GPIO_PinOutSet
                0x00002a68       0x58 ./drivers_src/rs485.o
 .text.LEUART_IntClear
                0x00002ac0       0x1c ./drivers_src/rs485.o
 .text.LEUART_IntDisable
                0x00002adc       0x24 ./drivers_src/rs485.o
 .text.LEUART_IntEnable
                0x00002b00       0x20 ./drivers_src/rs485.o
 .text.rs485_init
                0x00002b20       0xe0 ./drivers_src/rs485.o
                0x00002b20                rs485_init
 .text.rs485_enable
                0x00002c00       0x14 ./drivers_src/rs485.o
                0x00002c00                rs485_enable
 .text.rs485_transmit_string
                0x00002c14       0x78 ./drivers_src/rs485.o
                0x00002c14                rs485_transmit_string
 .text.rs485_recieve_char
                0x00002c8c       0x3c ./drivers_src/rs485.o
                0x00002c8c                rs485_recieve_char
 .text.rs485_tx_mode
                0x00002cc8       0x18 ./drivers_src/rs485.o
                0x00002cc8                rs485_tx_mode
 .text.rs485_rx_mode
                0x00002ce0       0x18 ./drivers_src/rs485.o
                0x00002ce0                rs485_rx_mode
 .text.LEUART0_IRQHandler
                0x00002cf8      0x15c ./drivers_src/rs485.o
                0x00002cf8                LEUART0_IRQHandler
 .text.GPIO_PinOutClear
                0x00002e54       0x58 ./drivers_src/spi.o
 .text.GPIO_PinOutSet
                0x00002eac       0x58 ./drivers_src/spi.o
 .text.USART_IntClear
                0x00002f04       0x1c ./drivers_src/spi.o
 .text.spi_init
                0x00002f20       0xbc ./drivers_src/spi.o
                0x00002f20                spi_init
 .text.spi_enable
                0x00002fdc       0x14 ./drivers_src/spi.o
                0x00002fdc                spi_enable
 .text.spi_disable
                0x00002ff0       0x14 ./drivers_src/spi.o
                0x00002ff0                spi_disable
 .text.spi_cs_set
                0x00003004       0x40 ./drivers_src/spi.o
                0x00003004                spi_cs_set
 .text.spi_cs_clear
                0x00003044       0x8c ./drivers_src/spi.o
                0x00003044                spi_cs_clear
 .text.spi_read_write_byte
                0x000030d0       0x34 ./drivers_src/spi.o
                0x000030d0                spi_read_write_byte
 .text.spi_write_byte
                0x00003104       0x28 ./drivers_src/spi.o
                0x00003104                spi_write_byte
 .text.spi_read_byte
                0x0000312c       0x2c ./drivers_src/spi.o
                0x0000312c                spi_read_byte
 .text.BUS_RegBitWrite
                0x00003158       0x2c ./emlib/src/em_burtc.o
 .text.BUS_RegBitRead
                0x00003184       0x2c ./emlib/src/em_burtc.o
 .text.BURTC_IntClear
                0x000031b0       0x1c ./emlib/src/em_burtc.o
 .text.BURTC_Enable
                0x000031cc       0x50 ./emlib/src/em_burtc.o
 .text.BURTC_FreezeEnable
                0x0000321c       0x20 ./emlib/src/em_burtc.o
 .text.divToLog2
                0x0000323c       0x34 ./emlib/src/em_burtc.o
 .text.regSync  0x00003270       0x40 ./emlib/src/em_burtc.o
 .text.BURTC_Init
                0x000032b0       0xe8 ./emlib/src/em_burtc.o
                0x000032b0                BURTC_Init
 .text.BURTC_CompareSet
                0x00003398       0x20 ./emlib/src/em_burtc.o
                0x00003398                BURTC_CompareSet
 .text.BURTC_Reset
                0x000033b8       0x3c ./emlib/src/em_burtc.o
                0x000033b8                BURTC_Reset
 .text.BUS_RegBitWrite
                0x000033f4       0x2c ./emlib/src/em_cmu.o
 .text.BUS_RegBitRead
                0x00003420       0x2c ./emlib/src/em_cmu.o
 .text.CMU_DivToLog2
                0x0000344c       0x34 ./emlib/src/em_cmu.o
 .text.SYSTEM_GetProdRev
                0x00003480       0x1c ./emlib/src/em_cmu.o
 .text.SYSTEM_GetFamily
                0x0000349c       0x20 ./emlib/src/em_cmu.o
 .text.maxFreqHfle
                0x000034bc       0x78 ./emlib/src/em_cmu.o
 .text.setHfLeConfig
                0x00003534       0x60 ./emlib/src/em_cmu.o
 .text.getHfLeConfig
                0x00003594       0x20 ./emlib/src/em_cmu.o
 .text.auxClkGet
                0x000035b4       0xb0 ./emlib/src/em_cmu.o
 .text.dbgClkGet
                0x00003664       0x40 ./emlib/src/em_cmu.o
 .text.flashWaitStateControl
                0x000036a4       0xb8 ./emlib/src/em_cmu.o
 .text.flashWaitStateMax
                0x0000375c       0x14 ./emlib/src/em_cmu.o
 .text.CMU_UpdateWaitStates
                0x00003770       0x18 ./emlib/src/em_cmu.o
                0x00003770                CMU_UpdateWaitStates
 .text.lfClkGet
                0x00003788       0xec ./emlib/src/em_cmu.o
 .text.syncReg  0x00003874       0x34 ./emlib/src/em_cmu.o
 .text.CMU_ClockDivSet
                0x000038a8      0x22c ./emlib/src/em_cmu.o
                0x000038a8                CMU_ClockDivSet
 .text.CMU_ClockEnable
                0x00003ad4       0xd0 ./emlib/src/em_cmu.o
                0x00003ad4                CMU_ClockEnable
 .text.CMU_ClockFreqGet
                0x00003ba4      0x1c8 ./emlib/src/em_cmu.o
                0x00003ba4                CMU_ClockFreqGet
 .text.CMU_ClockSelectGet
                0x00003d6c      0x124 ./emlib/src/em_cmu.o
                0x00003d6c                CMU_ClockSelectGet
 .text.CMU_ClockSelectSet
                0x00003e90      0x22c ./emlib/src/em_cmu.o
                0x00003e90                CMU_ClockSelectSet
 .text.CMU_HFRCOBandSet
                0x000040bc       0xe0 ./emlib/src/em_cmu.o
                0x000040bc                CMU_HFRCOBandSet
 .text.CMU_OscillatorEnable
                0x0000419c       0xbc ./emlib/src/em_cmu.o
                0x0000419c                CMU_OscillatorEnable
 .text.CORE_EnterAtomic
                0x00004258       0x20 ./emlib/src/em_core.o
                0x00004258                CORE_EnterAtomic
 .text.CORE_ExitAtomic
                0x00004278       0x1c ./emlib/src/em_core.o
                0x00004278                CORE_ExitAtomic
 .text.DMA_IRQHandler
                0x00004294       0xd8 ./emlib/src/em_dma.o
                0x00004294                DMA_IRQHandler
 .text.BUS_RegBitWrite
                0x0000436c       0x2c ./emlib/src/em_gpio.o
 .text.BUS_RegMaskedWrite
                0x00004398       0x28 ./emlib/src/em_gpio.o
 .text.GPIO_PinOutClear
                0x000043c0       0x58 ./emlib/src/em_gpio.o
 .text.GPIO_PinOutSet
                0x00004418       0x58 ./emlib/src/em_gpio.o
 .text.GPIO_DriveModeSet
                0x00004470       0x70 ./emlib/src/em_gpio.o
                0x00004470                GPIO_DriveModeSet
 .text.GPIO_ExtIntConfig
                0x000044e0       0xd4 ./emlib/src/em_gpio.o
                0x000044e0                GPIO_ExtIntConfig
 .text.GPIO_PinModeSet
                0x000045b4      0x10c ./emlib/src/em_gpio.o
                0x000045b4                GPIO_PinModeSet
 .text.LETIMER_Enable
                0x000046c0       0x2c ./emlib/src/em_letimer.o
                0x000046c0                LETIMER_Enable
 .text.LETIMER_FreezeEnable
                0x000046ec       0x34 ./emlib/src/em_letimer.o
                0x000046ec                LETIMER_FreezeEnable
 .text.LETIMER_Init
                0x00004720       0xf0 ./emlib/src/em_letimer.o
                0x00004720                LETIMER_Init
 .text.LETIMER_Reset
                0x00004810       0x50 ./emlib/src/em_letimer.o
                0x00004810                LETIMER_Reset
 .text.LEUART_Sync
                0x00004860       0x30 ./emlib/src/em_leuart.o
 .text.LEUART_BaudrateSet
                0x00004890       0x80 ./emlib/src/em_leuart.o
                0x00004890                LEUART_BaudrateSet
 .text.LEUART_Enable
                0x00004910       0x58 ./emlib/src/em_leuart.o
                0x00004910                LEUART_Enable
 .text.LEUART_FreezeEnable
                0x00004968       0x34 ./emlib/src/em_leuart.o
                0x00004968                LEUART_FreezeEnable
 .text.LEUART_Init
                0x0000499c       0x84 ./emlib/src/em_leuart.o
                0x0000499c                LEUART_Init
 .text.LEUART_Reset
                0x00004a20       0x70 ./emlib/src/em_leuart.o
                0x00004a20                LEUART_Reset
 .text.LEUART_Rx
                0x00004a90       0x28 ./emlib/src/em_leuart.o
                0x00004a90                LEUART_Rx
 .text.LEUART_Tx
                0x00004ab8       0x30 ./emlib/src/em_leuart.o
                0x00004ab8                LEUART_Tx
 .text.SL_CTZ   0x00004ae8       0x28 ./emlib/src/em_rmu.o
 .text.BUS_RegBitWrite
                0x00004b10       0x2c ./emlib/src/em_rmu.o
 .text.RMU_ResetControl
                0x00004b3c       0x3c ./emlib/src/em_rmu.o
                0x00004b3c                RMU_ResetControl
 .text.BUS_RegBitWrite
                0x00004b78       0x2c ./emlib/src/em_rtc.o
 .text.RTC_CompareSet
                0x00004ba4       0x3c ./emlib/src/em_rtc.o
                0x00004ba4                RTC_CompareSet
 .text.RTC_Enable
                0x00004be0       0x20 ./emlib/src/em_rtc.o
                0x00004be0                RTC_Enable
 .text.RTC_Init
                0x00004c00       0x50 ./emlib/src/em_rtc.o
                0x00004c00                RTC_Init
 .text.SYSTEM_ChipRevisionGet
                0x00004c50       0x74 ./emlib/src/em_system.o
                0x00004c50                SYSTEM_ChipRevisionGet
 .text.TIMER_Valid
                0x00004cc4       0x50 ./emlib/src/em_timer.o
 .text.TIMER_Init
                0x00004d14       0xdc ./emlib/src/em_timer.o
                0x00004d14                TIMER_Init
 .text.USART_BaudrateAsyncSet
                0x00004df0       0xb0 ./emlib/src/em_usart.o
                0x00004df0                USART_BaudrateAsyncSet
 .text.USART_BaudrateSyncSet
                0x00004ea0       0x40 ./emlib/src/em_usart.o
                0x00004ea0                USART_BaudrateSyncSet
 .text.USART_Enable
                0x00004ee0       0x58 ./emlib/src/em_usart.o
                0x00004ee0                USART_Enable
 .text.USART_InitAsync
                0x00004f38       0x9c ./emlib/src/em_usart.o
                0x00004f38                USART_InitAsync
 .text.USART_InitSync
                0x00004fd4       0xcc ./emlib/src/em_usart.o
                0x00004fd4                USART_InitSync
 .text.USART_Reset
                0x000050a0       0x98 ./emlib/src/em_usart.o
                0x000050a0                USART_Reset
 .text.USART_Rx
                0x00005138       0x28 ./emlib/src/em_usart.o
                0x00005138                USART_Rx
 .text.USART_SpiTransfer
                0x00005160       0x40 ./emlib/src/em_usart.o
                0x00005160                USART_SpiTransfer
 .text.USART_Tx
                0x000051a0       0x2c ./emlib/src/em_usart.o
                0x000051a0                USART_Tx
 .text.disk_status
                0x000051cc       0x44 ./fat_filesystem_src/diskio.o
                0x000051cc                disk_status
 .text.disk_initialize
                0x00005210       0x4c ./fat_filesystem_src/diskio.o
                0x00005210                disk_initialize
 .text.disk_read
                0x0000525c       0x50 ./fat_filesystem_src/diskio.o
                0x0000525c                disk_read
 .text.disk_write
                0x000052ac       0x50 ./fat_filesystem_src/diskio.o
                0x000052ac                disk_write
 .text.disk_ioctl
                0x000052fc       0x50 ./fat_filesystem_src/diskio.o
                0x000052fc                disk_ioctl
 .text.ld_word  0x0000534c       0x30 ./fat_filesystem_src/ff.o
 .text.ld_dword
                0x0000537c       0x48 ./fat_filesystem_src/ff.o
 .text.st_word  0x000053c4       0x34 ./fat_filesystem_src/ff.o
 .text.st_dword
                0x000053f8       0x58 ./fat_filesystem_src/ff.o
 .text.mem_cpy  0x00005450       0x40 ./fat_filesystem_src/ff.o
 .text.mem_set  0x00005490       0x34 ./fat_filesystem_src/ff.o
 .text.mem_cmp  0x000054c4       0x50 ./fat_filesystem_src/ff.o
 .text.chk_chr  0x00005514       0x38 ./fat_filesystem_src/ff.o
 .text.sync_window
                0x0000554c       0x8c ./fat_filesystem_src/ff.o
 .text.move_window
                0x000055d8       0x5c ./fat_filesystem_src/ff.o
 .text.sync_fs  0x00005634       0xdc ./fat_filesystem_src/ff.o
 .text.clust2sect
                0x00005710       0x40 ./fat_filesystem_src/ff.o
 .text.get_fat  0x00005750      0x140 ./fat_filesystem_src/ff.o
 .text.put_fat  0x00005890      0x1bc ./fat_filesystem_src/ff.o
 .text.remove_chain
                0x00005a4c       0xc8 ./fat_filesystem_src/ff.o
 .text.create_chain
                0x00005b14      0x134 ./fat_filesystem_src/ff.o
 .text.dir_sdi  0x00005c48       0xf4 ./fat_filesystem_src/ff.o
 .text.dir_next
                0x00005d3c      0x188 ./fat_filesystem_src/ff.o
 .text.dir_alloc
                0x00005ec4       0x90 ./fat_filesystem_src/ff.o
 .text.ld_clust
                0x00005f54       0x40 ./fat_filesystem_src/ff.o
 .text.st_clust
                0x00005f94       0x40 ./fat_filesystem_src/ff.o
 .text.dir_find
                0x00005fd4       0xa8 ./fat_filesystem_src/ff.o
 .text.dir_register
                0x0000607c       0x68 ./fat_filesystem_src/ff.o
 .text.create_name
                0x000060e4      0x1a0 ./fat_filesystem_src/ff.o
 .text.follow_path
                0x00006284       0xdc ./fat_filesystem_src/ff.o
 .text.get_ldnumber
                0x00006360       0x88 ./fat_filesystem_src/ff.o
 .text.check_fs
                0x000063e8       0xa8 ./fat_filesystem_src/ff.o
 .text.find_volume
                0x00006490      0x474 ./fat_filesystem_src/ff.o
 .text.validate
                0x00006904       0x68 ./fat_filesystem_src/ff.o
 .text.f_mount  0x0000696c       0x88 ./fat_filesystem_src/ff.o
                0x0000696c                f_mount
 .text.f_open   0x000069f4      0x320 ./fat_filesystem_src/ff.o
                0x000069f4                f_open
 .text.f_write  0x00006d14      0x2d8 ./fat_filesystem_src/ff.o
                0x00006d14                f_write
 .text.f_sync   0x00006fec      0x108 ./fat_filesystem_src/ff.o
                0x00006fec                f_sync
 .text.f_close  0x000070f4       0x40 ./fat_filesystem_src/ff.o
                0x000070f4                f_close
 .text.putc_bfd
                0x00007134       0x78 ./fat_filesystem_src/ff.o
 .text.putc_flush
                0x000071ac       0x54 ./fat_filesystem_src/ff.o
 .text.putc_init
                0x00007200       0x28 ./fat_filesystem_src/ff.o
 .text.f_puts   0x00007228       0x48 ./fat_filesystem_src/ff.o
                0x00007228                f_puts
 .text.get_fattime
                0x00007270       0x14 ./fat_filesystem_src/ff.o
                0x00007270                get_fattime
 .text.fifo_rs232_init
                0x00007284       0x48 ./fifo_buffers_src/fifo_rs232.o
                0x00007284                fifo_rs232_init
 .text.fifo_rs232_is_empty
                0x000072cc       0x4c ./fifo_buffers_src/fifo_rs232.o
                0x000072cc                fifo_rs232_is_empty
 .text.fifo_rs232_is_full
                0x00007318       0x50 ./fifo_buffers_src/fifo_rs232.o
                0x00007318                fifo_rs232_is_full
 .text.fifo_rs232_remove
                0x00007368       0xbc ./fifo_buffers_src/fifo_rs232.o
                0x00007368                fifo_rs232_remove
 .text.fifo_rs232_add
                0x00007424       0xb0 ./fifo_buffers_src/fifo_rs232.o
                0x00007424                fifo_rs232_add
 .text.fifo_tbr_init
                0x000074d4       0x68 ./fifo_buffers_src/fifo_tbr.o
                0x000074d4                fifo_tbr_init
 .text.fifo_tbr_is_empty
                0x0000753c       0x6c ./fifo_buffers_src/fifo_tbr.o
                0x0000753c                fifo_tbr_is_empty
 .text.fifo_tbr_is_full
                0x000075a8       0x6c ./fifo_buffers_src/fifo_tbr.o
                0x000075a8                fifo_tbr_is_full
 .text.fifo_tbr_remove
                0x00007614      0x108 ./fifo_buffers_src/fifo_tbr.o
                0x00007614                fifo_tbr_remove
 .text.fifo_tbr_add
                0x0000771c       0xf8 ./fifo_buffers_src/fifo_tbr.o
                0x0000771c                fifo_tbr_add
 .text.debug_str
                0x00007814       0x28 ./hal/debug.o
                0x00007814                debug_str
 .text.NVIC_EnableIRQ
                0x0000783c       0x30 ./hal/hal.o
 .text.NVIC_ClearPendingIRQ
                0x0000786c       0x34 ./hal/hal.o
 .text.NVIC_SystemReset
                0x000078a0       0x28 ./hal/hal.o
 .text.BUS_RegBitWrite
                0x000078c8       0x2c ./hal/hal.o
 .text.GPIO_IntClear
                0x000078f4       0x20 ./hal/hal.o
 .text.GPIO_IntGetEnabled
                0x00007914       0x28 ./hal/hal.o
 .text.GPIO_PinOutSet
                0x0000793c       0x58 ./hal/hal.o
 .text.GPIO_IntConfig
                0x00007994       0x38 ./hal/hal.o
 .text.RTC_CounterGet
                0x000079cc       0x18 ./hal/hal.o
 .text.RTC_IntClear
                0x000079e4       0x1c ./hal/hal.o
 .text.RTC_IntDisable
                0x00007a00       0x24 ./hal/hal.o
 .text.RTC_IntEnable
                0x00007a24       0x24 ./hal/hal.o
 .text.RTC_IntGet
                0x00007a48       0x18 ./hal/hal.o
 .text.EMU_EnterEM1
                0x00007a60       0x20 ./hal/hal.o
 .text.BURTC_IntClear
                0x00007a80       0x1c ./hal/hal.o
 .text.BURTC_IntDisable
                0x00007a9c       0x24 ./hal/hal.o
 .text.BURTC_IntEnable
                0x00007ac0       0x24 ./hal/hal.o
 .text.BURTC_IntGet
                0x00007ae4       0x18 ./hal/hal.o
 .text.BURTC_Enable
                0x00007afc       0x50 ./hal/hal.o
 .text.LETIMER_CounterGet
                0x00007b4c       0x18 ./hal/hal.o
 .text.BURTC_IRQHandler
                0x00007b64      0x118 ./hal/hal.o
                0x00007b64                BURTC_IRQHandler
 .text.time_manager_init
                0x00007c7c       0xec ./hal/hal.o
                0x00007c7c                time_manager_init
 .text.time_manager_unixTimestamp
                0x00007d68      0x118 ./hal/hal.o
                0x00007d68                time_manager_unixTimestamp
 .text.time_manager_get_cmd
                0x00007e80       0x18 ./hal/hal.o
                0x00007e80                time_manager_get_cmd
 .text.GPIO_EVEN_IRQHandler
                0x00007e98      0x110 ./hal/hal.o
                0x00007e98                GPIO_EVEN_IRQHandler
 .text.GPIO_ODD_IRQHandler
                0x00007fa8       0x2c ./hal/hal.o
                0x00007fa8                GPIO_ODD_IRQHandler
 .text.hal_io_init
                0x00007fd4       0xbc ./hal/hal.o
 .text.hal_pin_rxtx
                0x00008090       0x14 ./hal/hal.o
                0x00008090                hal_pin_rxtx
 .text.hal_pin_nss
                0x000080a4       0x24 ./hal/hal.o
                0x000080a4                hal_pin_nss
 .text.hal_pin_rst
                0x000080c8       0x18 ./hal/hal.o
                0x000080c8                hal_pin_rst
 .text.hal_spi_init
                0x000080e0       0x10 ./hal/hal.o
 .text.hal_spi  0x000080f0       0x24 ./hal/hal.o
                0x000080f0                hal_spi
 .text.RTC_IRQHandler
                0x00008114       0x34 ./hal/hal.o
                0x00008114                RTC_IRQHandler
 .text.hal_time_init
                0x00008148       0x84 ./hal/hal.o
 .text.hal_ticks
                0x000081cc       0x4c ./hal/hal.o
                0x000081cc                hal_ticks
 .text.deltaticks
                0x00008218       0x3c ./hal/hal.o
 .text.hal_waitUntil
                0x00008254       0x1c ./hal/hal.o
                0x00008254                hal_waitUntil
 .text.hal_checkTimer
                0x00008270       0x4c ./hal/hal.o
                0x00008270                hal_checkTimer
 .text.hal_disableIRQs
                0x000082bc       0x40 ./hal/hal.o
                0x000082bc                hal_disableIRQs
 .text.hal_enableIRQs
                0x000082fc       0x38 ./hal/hal.o
                0x000082fc                hal_enableIRQs
 .text.hal_sleep
                0x00008334        0xc ./hal/hal.o
                0x00008334                hal_sleep
 .text.hal_init
                0x00008340       0x28 ./hal/hal.o
                0x00008340                hal_init
 .text.hal_failed
                0x00008368       0x74 ./hal/hal.o
                0x00008368                hal_failed
 .text.getSf    0x000083dc       0x20 ./lmic/lmic.o
                0x000083dc                getSf
 .text.getBw    0x000083fc       0x24 ./lmic/lmic.o
                0x000083fc                getBw
 .text.getCr    0x00008420       0x24 ./lmic/lmic.o
                0x00008420                getCr
 .text.getNocrc
                0x00008444       0x20 ./lmic/lmic.o
                0x00008444                getNocrc
 .text.getIh    0x00008464       0x20 ./lmic/lmic.o
                0x00008464                getIh
 .text.LMIC_init
                0x00008484       0x18 ./lmic/lmic.o
                0x00008484                LMIC_init
 .text.os_init  0x0000849c       0x20 ./lmic/oslmic.o
                0x0000849c                os_init
 .text.os_getTime
                0x000084bc       0x10 ./lmic/oslmic.o
                0x000084bc                os_getTime
 .text.unlinkjob
                0x000084cc       0x40 ./lmic/oslmic.o
 .text.os_clearCallback
                0x0000850c       0x3c ./lmic/oslmic.o
                0x0000850c                os_clearCallback
 .text.os_setCallback
                0x00008548       0x48 ./lmic/oslmic.o
                0x00008548                os_setCallback
 .text.os_setTimedCallback
                0x00008590       0x68 ./lmic/oslmic.o
                0x00008590                os_setTimedCallback
 .text.os_runloop
                0x000085f8       0x6c ./lmic/oslmic.o
                0x000085f8                os_runloop
 .text.writeReg
                0x00008664       0x38 ./lmic/radio.o
 .text.readReg  0x0000869c       0x38 ./lmic/radio.o
 .text.readBuf  0x000086d4       0x54 ./lmic/radio.o
 .text.opmode   0x00008728       0x30 ./lmic/radio.o
 .text.opmodeLora
                0x00008758       0x24 ./lmic/radio.o
 .text.configLoraModem
                0x0000877c      0x150 ./lmic/radio.o
 .text.configChannel
                0x000088cc       0x7c ./lmic/radio.o
 .text.rxlora   0x00008948       0xd8 ./lmic/radio.o
 .text.radio_init
                0x00008a20      0x16c ./lmic/radio.o
                0x00008a20                radio_init
 .text.radio_irq_handler
                0x00008b8c      0x1ac ./lmic/radio.o
                0x00008b8c                radio_irq_handler
 .text.file_sys_setup
                0x00008d38       0xf8 ./resource managers_src/app_manager.o
                0x00008d38                file_sys_setup
 .text.tbr_cmd_update_rgb_led
                0x00008e30       0x50 ./resource managers_src/app_manager.o
                0x00008e30                tbr_cmd_update_rgb_led
 .text.nmea0183_checksum
                0x00008e80       0x44 ./resource managers_src/app_manager.o
                0x00008e80                nmea0183_checksum
 .text.append_gps_status
                0x00008ec4      0x3e0 ./resource managers_src/app_manager.o
                0x00008ec4                append_gps_status
 .text.app_manager_init
                0x000092a4      0x190 ./resource managers_src/app_manager.o
                0x000092a4                app_manager_init
 .text.app_manager_tbr_synch_msg
                0x00009434      0x12c ./resource managers_src/app_manager.o
                0x00009434                app_manager_tbr_synch_msg
 .text.app_funct
                0x00009560       0xd4 ./resource managers_src/lpwan_manager.o
 .text.real_time_funct
                0x00009634       0x54 ./resource managers_src/lpwan_manager.o
 .text.lpwan_init
                0x00009688       0x20 ./resource managers_src/lpwan_manager.o
                0x00009688                lpwan_init
 .text.onEvent  0x000096a8      0x174 ./resource managers_src/lpwan_manager.o
                0x000096a8                onEvent
 .text.debug_function
                0x0000981c       0x18 ./resource managers_src/lpwan_manager.o
                0x0000981c                debug_function
 .text.SYSTEM_GetProdRev
                0x00009834       0x1c ./src/main.o
 .text.CHIP_Init
                0x00009850       0x3c ./src/main.o
 .text.main     0x0000988c       0x6c ./src/main.o
                0x0000988c                main
 .text          0x000098f8      0x370 c:/siliconlabs/simplicitystudio/v4/developer/toolchains/gnu_arm/4.9_2015q3/bin/../lib/gcc/arm-none-eabi/4.9.3/armv7-m\libgcc.a(_arm_addsubdf3.o)
                0x000098f8                __aeabi_drsub
                0x00009900                __aeabi_dsub
                0x00009900                __subdf3
                0x00009904                __aeabi_dadd
                0x00009904                __adddf3
                0x00009b7c                __floatunsidf
                0x00009b7c                __aeabi_ui2d
                0x00009b9c                __floatsidf
                0x00009b9c                __aeabi_i2d
                0x00009bc0                __aeabi_f2d
                0x00009bc0                __extendsfdf2
                0x00009bfc                __floatundidf
                0x00009bfc                __aeabi_ul2d
                0x00009c0c                __floatdidf
                0x00009c0c                __aeabi_l2d
 .text          0x00009c68      0x21c c:/siliconlabs/simplicitystudio/v4/developer/toolchains/gnu_arm/4.9_2015q3/bin/../lib/gcc/arm-none-eabi/4.9.3/armv7-m\libgcc.a(_arm_addsubsf3.o)
                0x00009c68                __aeabi_frsub
                0x00009c70                __subsf3
                0x00009c70                __aeabi_fsub
                0x00009c74                __aeabi_fadd
                0x00009c74                __addsf3
                0x00009dd4                __aeabi_ui2f
                0x00009dd4                __floatunsisf
                0x00009ddc                __aeabi_i2f
                0x00009ddc                __floatsisf
                0x00009df8                __aeabi_ul2f
                0x00009df8                __floatundisf
                0x00009e08                __aeabi_l2f
                0x00009e08                __floatdisf
 .text          0x00009e84      0x2a0 c:/siliconlabs/simplicitystudio/v4/developer/toolchains/gnu_arm/4.9_2015q3/bin/../lib/gcc/arm-none-eabi/4.9.3/armv7-m\libgcc.a(_arm_muldivsf3.o)
                0x00009e84                __mulsf3
                0x00009e84                __aeabi_fmul
                0x00009fec                __aeabi_fdiv
                0x00009fec                __divsf3
 .text          0x0000a124       0xec c:/siliconlabs/simplicitystudio/v4/developer/toolchains/gnu_arm/4.9_2015q3/bin/../lib/gcc/arm-none-eabi/4.9.3/armv7-m\libgcc.a(_arm_cmpsf2.o)
                0x0000a124                __gesf2
                0x0000a124                __gtsf2
                0x0000a12c                __lesf2
                0x0000a12c                __ltsf2
                0x0000a134                __nesf2
                0x0000a134                __eqsf2
                0x0000a134                __cmpsf2
                0x0000a194                __aeabi_cfrcmple
                0x0000a19c                __aeabi_cfcmpeq
                0x0000a19c                __aeabi_cfcmple
                0x0000a1ac                __aeabi_fcmpeq
                0x0000a1c0                __aeabi_fcmplt
                0x0000a1d4                __aeabi_fcmple
                0x0000a1e8                __aeabi_fcmpge
                0x0000a1fc                __aeabi_fcmpgt
 .text          0x0000a210       0x4c c:/siliconlabs/simplicitystudio/v4/developer/toolchains/gnu_arm/4.9_2015q3/bin/../lib/gcc/arm-none-eabi/4.9.3/armv7-m\libgcc.a(_arm_fixsfsi.o)
                0x0000a210                __aeabi_f2iz
                0x0000a210                __fixsfsi
 .text          0x0000a25c       0x30 c:/siliconlabs/simplicitystudio/v4/developer/toolchains/gnu_arm/4.9_2015q3/bin/../lib/gcc/arm-none-eabi/4.9.3/armv7-m\libgcc.a(_aeabi_uldivmod.o)
                0x0000a25c                __aeabi_uldivmod
 .text          0x0000a28c       0x60 c:/siliconlabs/simplicitystudio/v4/developer/toolchains/gnu_arm/4.9_2015q3/bin/../lib/gcc/arm-none-eabi/4.9.3/armv7-m\libgcc.a(bpabi.o)
                0x0000a28c                __gnu_ldivmod_helper
                0x0000a2bc                __gnu_uldivmod_helper
 .text          0x0000a2ec        0x4 c:/siliconlabs/simplicitystudio/v4/developer/toolchains/gnu_arm/4.9_2015q3/bin/../lib/gcc/arm-none-eabi/4.9.3/armv7-m\libgcc.a(_dvmd_tls.o)
                0x0000a2ec                __aeabi_idiv0
                0x0000a2ec                __aeabi_ldiv0
 .text          0x0000a2f0      0x2ac c:/siliconlabs/simplicitystudio/v4/developer/toolchains/gnu_arm/4.9_2015q3/bin/../lib/gcc/arm-none-eabi/4.9.3/armv7-m\libgcc.a(_divdi3.o)
                0x0000a2f0                __divdi3
 .text          0x0000a59c      0x270 c:/siliconlabs/simplicitystudio/v4/developer/toolchains/gnu_arm/4.9_2015q3/bin/../lib/gcc/arm-none-eabi/4.9.3/armv7-m\libgcc.a(_udivdi3.o)
                0x0000a59c                __udivdi3
 .text.exit     0x0000a80c       0x28 c:/siliconlabs/simplicitystudio/v4/developer/toolchains/gnu_arm/4.9_2015q3/bin/../lib/gcc/arm-none-eabi/4.9.3/../../../../arm-none-eabi/lib/armv7-m\libc_nano.a(lib_a-exit.o)
                0x0000a80c                exit
 .text.__libc_init_array
                0x0000a834       0x4c c:/siliconlabs/simplicitystudio/v4/developer/toolchains/gnu_arm/4.9_2015q3/bin/../lib/gcc/arm-none-eabi/4.9.3/../../../../arm-none-eabi/lib/armv7-m\libc_nano.a(lib_a-init.o)
                0x0000a834                __libc_init_array
 .text.memcpy   0x0000a880       0x16 c:/siliconlabs/simplicitystudio/v4/developer/toolchains/gnu_arm/4.9_2015q3/bin/../lib/gcc/arm-none-eabi/4.9.3/../../../../arm-none-eabi/lib/armv7-m\libc_nano.a(lib_a-memcpy.o)
                0x0000a880                memcpy
 .text.memset   0x0000a896       0x10 c:/siliconlabs/simplicitystudio/v4/developer/toolchains/gnu_arm/4.9_2015q3/bin/../lib/gcc/arm-none-eabi/4.9.3/../../../../arm-none-eabi/lib/armv7-m\libc_nano.a(lib_a-memset.o)
                0x0000a896                memset
 .text.__cvt    0x0000a8a6       0xbc c:/siliconlabs/simplicitystudio/v4/developer/toolchains/gnu_arm/4.9_2015q3/bin/../lib/gcc/arm-none-eabi/4.9.3/../../../../arm-none-eabi/lib/armv7-m\libc_nano.a(lib_a-nano-vfprintf_float.o)
                0x0000a8a6                __cvt
 .text.__exponent
                0x0000a962       0x62 c:/siliconlabs/simplicitystudio/v4/developer/toolchains/gnu_arm/4.9_2015q3/bin/../lib/gcc/arm-none-eabi/4.9.3/../../../../arm-none-eabi/lib/armv7-m\libc_nano.a(lib_a-nano-vfprintf_float.o)
                0x0000a962                __exponent
 .text._printf_float
                0x0000a9c4      0x48c c:/siliconlabs/simplicitystudio/v4/developer/toolchains/gnu_arm/4.9_2015q3/bin/../lib/gcc/arm-none-eabi/4.9.3/../../../../arm-none-eabi/lib/armv7-m\libc_nano.a(lib_a-nano-vfprintf_float.o)
                0x0000a9c4                _printf_float
 .text._printf_common
                0x0000ae50       0xea c:/siliconlabs/simplicitystudio/v4/developer/toolchains/gnu_arm/4.9_2015q3/bin/../lib/gcc/arm-none-eabi/4.9.3/../../../../arm-none-eabi/lib/armv7-m\libc_nano.a(lib_a-nano-vfprintf_i.o)
                0x0000ae50                _printf_common
 *fill*         0x0000af3a        0x2 
 .text._printf_i
                0x0000af3c      0x240 c:/siliconlabs/simplicitystudio/v4/developer/toolchains/gnu_arm/4.9_2015q3/bin/../lib/gcc/arm-none-eabi/4.9.3/../../../../arm-none-eabi/lib/armv7-m\libc_nano.a(lib_a-nano-vfprintf_i.o)
                0x0000af3c                _printf_i
 .text.__fpclassifyd
                0x0000b17c       0x50 c:/siliconlabs/simplicitystudio/v4/developer/toolchains/gnu_arm/4.9_2015q3/bin/../lib/gcc/arm-none-eabi/4.9.3/../../../../arm-none-eabi/lib/armv7-m\libc_nano.a(lib_a-s_fpclassify.o)
                0x0000b17c                __fpclassifyd
 .text.sprintf  0x0000b1cc       0x48 c:/siliconlabs/simplicitystudio/v4/developer/toolchains/gnu_arm/4.9_2015q3/bin/../lib/gcc/arm-none-eabi/4.9.3/../../../../arm-none-eabi/lib/armv7-m\libc_nano.a(lib_a-sprintf.o)
                0x0000b1cc                siprintf
                0x0000b1cc                sprintf
 .text.strchr   0x0000b214       0x1c c:/siliconlabs/simplicitystudio/v4/developer/toolchains/gnu_arm/4.9_2015q3/bin/../lib/gcc/arm-none-eabi/4.9.3/../../../../arm-none-eabi/lib/armv7-m\libc_nano.a(lib_a-strchr.o)
                0x0000b214                strchr
 .text.strlen   0x0000b230       0x10 c:/siliconlabs/simplicitystudio/v4/developer/toolchains/gnu_arm/4.9_2015q3/bin/../lib/gcc/arm-none-eabi/4.9.3/../../../../arm-none-eabi/lib/armv7-m\libc_nano.a(lib_a-strlen.o)
                0x0000b230                strlen
 .text.strncmp  0x0000b240       0x32 c:/siliconlabs/simplicitystudio/v4/developer/toolchains/gnu_arm/4.9_2015q3/bin/../lib/gcc/arm-none-eabi/4.9.3/../../../../arm-none-eabi/lib/armv7-m\libc_nano.a(lib_a-strncmp.o)
                0x0000b240                strncmp
 .text.strstr   0x0000b272       0x30 c:/siliconlabs/simplicitystudio/v4/developer/toolchains/gnu_arm/4.9_2015q3/bin/../lib/gcc/arm-none-eabi/4.9.3/../../../../arm-none-eabi/lib/armv7-m\libc_nano.a(lib_a-strstr.o)
                0x0000b272                strstr
 *fill*         0x0000b2a2        0x2 
 .text.strtok   0x0000b2a4       0x64 c:/siliconlabs/simplicitystudio/v4/developer/toolchains/gnu_arm/4.9_2015q3/bin/../lib/gcc/arm-none-eabi/4.9.3/../../../../arm-none-eabi/lib/armv7-m\libc_nano.a(lib_a-strtok.o)
                0x0000b2a4                strtok
 .text.__strtok_r
                0x0000b308       0x56 c:/siliconlabs/simplicitystudio/v4/developer/toolchains/gnu_arm/4.9_2015q3/bin/../lib/gcc/arm-none-eabi/4.9.3/../../../../arm-none-eabi/lib/armv7-m\libc_nano.a(lib_a-strtok_r.o)
                0x0000b308                __strtok_r
 *fill*         0x0000b35e        0x2 
 .text._strtoul_r
                0x0000b360       0xf8 c:/siliconlabs/simplicitystudio/v4/developer/toolchains/gnu_arm/4.9_2015q3/bin/../lib/gcc/arm-none-eabi/4.9.3/../../../../arm-none-eabi/lib/armv7-m\libc_nano.a(lib_a-strtoul.o)
                0x0000b360                _strtoul_r
 .text.strtoul  0x0000b458       0x1c c:/siliconlabs/simplicitystudio/v4/developer/toolchains/gnu_arm/4.9_2015q3/bin/../lib/gcc/arm-none-eabi/4.9.3/../../../../arm-none-eabi/lib/armv7-m\libc_nano.a(lib_a-strtoul.o)
                0x0000b458                strtoul
 .text.quorem   0x0000b474      0x114 c:/siliconlabs/simplicitystudio/v4/developer/toolchains/gnu_arm/4.9_2015q3/bin/../lib/gcc/arm-none-eabi/4.9.3/../../../../arm-none-eabi/lib/armv7-m\libc_nano.a(lib_a-dtoa.o)
 .text._dtoa_r  0x0000b588      0xb74 c:/siliconlabs/simplicitystudio/v4/developer/toolchains/gnu_arm/4.9_2015q3/bin/../lib/gcc/arm-none-eabi/4.9.3/../../../../arm-none-eabi/lib/armv7-m\libc_nano.a(lib_a-dtoa.o)
                0x0000b588                _dtoa_r
 .text._localeconv_r
                0x0000c0fc        0x8 c:/siliconlabs/simplicitystudio/v4/developer/toolchains/gnu_arm/4.9_2015q3/bin/../lib/gcc/arm-none-eabi/4.9.3/../../../../arm-none-eabi/lib/armv7-m\libc_nano.a(lib_a-locale.o)
                0x0000c0fc                _localeconv_r
 .text.malloc   0x0000c104       0x10 c:/siliconlabs/simplicitystudio/v4/developer/toolchains/gnu_arm/4.9_2015q3/bin/../lib/gcc/arm-none-eabi/4.9.3/../../../../arm-none-eabi/lib/armv7-m\libc_nano.a(lib_a-malloc.o)
                0x0000c104                malloc
 .text.memchr   0x0000c114       0x1c c:/siliconlabs/simplicitystudio/v4/developer/toolchains/gnu_arm/4.9_2015q3/bin/../lib/gcc/arm-none-eabi/4.9.3/../../../../arm-none-eabi/lib/armv7-m\libc_nano.a(lib_a-memchr.o)
                0x0000c114                memchr
 .text._Balloc  0x0000c130       0x6a c:/siliconlabs/simplicitystudio/v4/developer/toolchains/gnu_arm/4.9_2015q3/bin/../lib/gcc/arm-none-eabi/4.9.3/../../../../arm-none-eabi/lib/armv7-m\libc_nano.a(lib_a-mprec.o)
                0x0000c130                _Balloc
 .text._Bfree   0x0000c19a       0x2e c:/siliconlabs/simplicitystudio/v4/developer/toolchains/gnu_arm/4.9_2015q3/bin/../lib/gcc/arm-none-eabi/4.9.3/../../../../arm-none-eabi/lib/armv7-m\libc_nano.a(lib_a-mprec.o)
                0x0000c19a                _Bfree
 .text.__multadd
                0x0000c1c8       0x7c c:/siliconlabs/simplicitystudio/v4/developer/toolchains/gnu_arm/4.9_2015q3/bin/../lib/gcc/arm-none-eabi/4.9.3/../../../../arm-none-eabi/lib/armv7-m\libc_nano.a(lib_a-mprec.o)
                0x0000c1c8                __multadd
 .text.__hi0bits
                0x0000c244       0x40 c:/siliconlabs/simplicitystudio/v4/developer/toolchains/gnu_arm/4.9_2015q3/bin/../lib/gcc/arm-none-eabi/4.9.3/../../../../arm-none-eabi/lib/armv7-m\libc_nano.a(lib_a-mprec.o)
                0x0000c244                __hi0bits
 .text.__lo0bits
                0x0000c284       0x5a c:/siliconlabs/simplicitystudio/v4/developer/toolchains/gnu_arm/4.9_2015q3/bin/../lib/gcc/arm-none-eabi/4.9.3/../../../../arm-none-eabi/lib/armv7-m\libc_nano.a(lib_a-mprec.o)
                0x0000c284                __lo0bits
 .text.__i2b    0x0000c2de       0x12 c:/siliconlabs/simplicitystudio/v4/developer/toolchains/gnu_arm/4.9_2015q3/bin/../lib/gcc/arm-none-eabi/4.9.3/../../../../arm-none-eabi/lib/armv7-m\libc_nano.a(lib_a-mprec.o)
                0x0000c2de                __i2b
 .text.__multiply
                0x0000c2f0      0x120 c:/siliconlabs/simplicitystudio/v4/developer/toolchains/gnu_arm/4.9_2015q3/bin/../lib/gcc/arm-none-eabi/4.9.3/../../../../arm-none-eabi/lib/armv7-m\libc_nano.a(lib_a-mprec.o)
                0x0000c2f0                __multiply
 .text.__pow5mult
                0x0000c410       0x9c c:/siliconlabs/simplicitystudio/v4/developer/toolchains/gnu_arm/4.9_2015q3/bin/../lib/gcc/arm-none-eabi/4.9.3/../../../../arm-none-eabi/lib/armv7-m\libc_nano.a(lib_a-mprec.o)
                0x0000c410                __pow5mult
 .text.__lshift
                0x0000c4ac       0xa6 c:/siliconlabs/simplicitystudio/v4/developer/toolchains/gnu_arm/4.9_2015q3/bin/../lib/gcc/arm-none-eabi/4.9.3/../../../../arm-none-eabi/lib/armv7-m\libc_nano.a(lib_a-mprec.o)
                0x0000c4ac                __lshift
 .text.__mcmp   0x0000c552       0x38 c:/siliconlabs/simplicitystudio/v4/developer/toolchains/gnu_arm/4.9_2015q3/bin/../lib/gcc/arm-none-eabi/4.9.3/../../../../arm-none-eabi/lib/armv7-m\libc_nano.a(lib_a-mprec.o)
                0x0000c552                __mcmp
 .text.__mdiff  0x0000c58a       0xbe c:/siliconlabs/simplicitystudio/v4/developer/toolchains/gnu_arm/4.9_2015q3/bin/../lib/gcc/arm-none-eabi/4.9.3/../../../../arm-none-eabi/lib/armv7-m\libc_nano.a(lib_a-mprec.o)
                0x0000c58a                __mdiff
 .text.__d2b    0x0000c648       0xa4 c:/siliconlabs/simplicitystudio/v4/developer/toolchains/gnu_arm/4.9_2015q3/bin/../lib/gcc/arm-none-eabi/4.9.3/../../../../arm-none-eabi/lib/armv7-m\libc_nano.a(lib_a-mprec.o)
                0x0000c648                __d2b
 .text._calloc_r
                0x0000c6ec       0x1c c:/siliconlabs/simplicitystudio/v4/developer/toolchains/gnu_arm/4.9_2015q3/bin/../lib/gcc/arm-none-eabi/4.9.3/../../../../arm-none-eabi/lib/armv7-m\libc_nano.a(lib_a-nano-callocr.o)
                0x0000c6ec                _calloc_r
 .text._free_r  0x0000c708       0x88 c:/siliconlabs/simplicitystudio/v4/developer/toolchains/gnu_arm/4.9_2015q3/bin/../lib/gcc/arm-none-eabi/4.9.3/../../../../arm-none-eabi/lib/armv7-m\libc_nano.a(lib_a-nano-freer.o)
                0x0000c708                _free_r
 .text._malloc_r
                0x0000c790       0xac c:/siliconlabs/simplicitystudio/v4/developer/toolchains/gnu_arm/4.9_2015q3/bin/../lib/gcc/arm-none-eabi/4.9.3/../../../../arm-none-eabi/lib/armv7-m\libc_nano.a(lib_a-nano-mallocr.o)
                0x0000c790                _malloc_r
 .text.__ssputs_r
                0x0000c83c       0xb2 c:/siliconlabs/simplicitystudio/v4/developer/toolchains/gnu_arm/4.9_2015q3/bin/../lib/gcc/arm-none-eabi/4.9.3/../../../../arm-none-eabi/lib/armv7-m\libc_nano.a(lib_a-nano-svfprintf.o)
                0x0000c83c                __ssputs_r
 *fill*         0x0000c8ee        0x2 
 .text._svfprintf_r
                0x0000c8f0      0x1e4 c:/siliconlabs/simplicitystudio/v4/developer/toolchains/gnu_arm/4.9_2015q3/bin/../lib/gcc/arm-none-eabi/4.9.3/../../../../arm-none-eabi/lib/armv7-m\libc_nano.a(lib_a-nano-svfprintf.o)
                0x0000c8f0                _svfiprintf_r
                0x0000c8f0                _svfprintf_r
 .text._sbrk_r  0x0000cad4       0x20 c:/siliconlabs/simplicitystudio/v4/developer/toolchains/gnu_arm/4.9_2015q3/bin/../lib/gcc/arm-none-eabi/4.9.3/../../../../arm-none-eabi/lib/armv7-m\libc_nano.a(lib_a-sbrkr.o)
                0x0000cad4                _sbrk_r
 .text.memmove  0x0000caf4       0x36 c:/siliconlabs/simplicitystudio/v4/developer/toolchains/gnu_arm/4.9_2015q3/bin/../lib/gcc/arm-none-eabi/4.9.3/../../../../arm-none-eabi/lib/armv7-m\libc_nano.a(lib_a-memmove.o)
                0x0000caf4                memmove
 .text._realloc_r
                0x0000cb2a       0x4c c:/siliconlabs/simplicitystudio/v4/developer/toolchains/gnu_arm/4.9_2015q3/bin/../lib/gcc/arm-none-eabi/4.9.3/../../../../arm-none-eabi/lib/armv7-m\libc_nano.a(lib_a-nano-reallocr.o)
                0x0000cb2a                _realloc_r
 .text._malloc_usable_size_r
                0x0000cb76       0x14 c:/siliconlabs/simplicitystudio/v4/developer/toolchains/gnu_arm/4.9_2015q3/bin/../lib/gcc/arm-none-eabi/4.9.3/../../../../arm-none-eabi/lib/armv7-m\libc_nano.a(lib_a-nano-msizer.o)
                0x0000cb76                _malloc_usable_size_r
 *fill*         0x0000cb8a        0x2 
 .text._sbrk    0x0000cb8c       0x1c c:/siliconlabs/simplicitystudio/v4/developer/toolchains/gnu_arm/4.9_2015q3/bin/../lib/gcc/arm-none-eabi/4.9.3/../../../../arm-none-eabi/lib/armv7-m\libnosys.a(sbrk.o)
                0x0000cb8c                _sbrk
 .text._exit    0x0000cba8        0x4 c:/siliconlabs/simplicitystudio/v4/developer/toolchains/gnu_arm/4.9_2015q3/bin/../lib/gcc/arm-none-eabi/4.9.3/../../../../arm-none-eabi/lib/armv7-m\libnosys.a(_exit.o)
                0x0000cba8                _exit
 .text          0x0000cbac      0x424 c:/siliconlabs/simplicitystudio/v4/developer/toolchains/gnu_arm/4.9_2015q3/bin/../lib/gcc/arm-none-eabi/4.9.3/armv7-m\libgcc.a(_arm_muldivdf3.o)
                0x0000cbac                __aeabi_dmul
                0x0000cbac                __muldf3
                0x0000ce00                __divdf3
                0x0000ce00                __aeabi_ddiv
 .text          0x0000cfd0      0x110 c:/siliconlabs/simplicitystudio/v4/developer/toolchains/gnu_arm/4.9_2015q3/bin/../lib/gcc/arm-none-eabi/4.9.3/armv7-m\libgcc.a(_arm_cmpdf2.o)
                0x0000cfd0                __gtdf2
                0x0000cfd0                __gedf2
                0x0000cfd8                __ltdf2
                0x0000cfd8                __ledf2
                0x0000cfe0                __nedf2
                0x0000cfe0                __eqdf2
                0x0000cfe0                __cmpdf2
                0x0000d05c                __aeabi_cdrcmple
                0x0000d06c                __aeabi_cdcmpeq
                0x0000d06c                __aeabi_cdcmple
                0x0000d07c                __aeabi_dcmpeq
                0x0000d090                __aeabi_dcmplt
                0x0000d0a4                __aeabi_dcmple
                0x0000d0b8                __aeabi_dcmpge
                0x0000d0cc                __aeabi_dcmpgt
 .text          0x0000d0e0       0x50 c:/siliconlabs/simplicitystudio/v4/developer/toolchains/gnu_arm/4.9_2015q3/bin/../lib/gcc/arm-none-eabi/4.9.3/armv7-m\libgcc.a(_arm_fixdfsi.o)
                0x0000d0e0                __aeabi_d2iz
                0x0000d0e0                __fixdfsi
 *(.init)
 .init          0x0000d130        0x4 c:/siliconlabs/simplicitystudio/v4/developer/toolchains/gnu_arm/4.9_2015q3/bin/../lib/gcc/arm-none-eabi/4.9.3/armv7-m/crti.o
                0x0000d130                _init
 .init          0x0000d134        0x8 c:/siliconlabs/simplicitystudio/v4/developer/toolchains/gnu_arm/4.9_2015q3/bin/../lib/gcc/arm-none-eabi/4.9.3/armv7-m/crtn.o
 *(.fini)
 .fini          0x0000d13c        0x4 c:/siliconlabs/simplicitystudio/v4/developer/toolchains/gnu_arm/4.9_2015q3/bin/../lib/gcc/arm-none-eabi/4.9.3/armv7-m/crti.o
                0x0000d13c                _fini
 .fini          0x0000d140        0x8 c:/siliconlabs/simplicitystudio/v4/developer/toolchains/gnu_arm/4.9_2015q3/bin/../lib/gcc/arm-none-eabi/4.9.3/armv7-m/crtn.o
 *crtbegin.o(.ctors)
 *crtbegin?.o(.ctors)
 *(EXCLUDE_FILE(*crtend.o *crtend?.o) .ctors)
 *(SORT(.ctors.*))
 *(.ctors)
 *crtbegin.o(.dtors)
 *crtbegin?.o(.dtors)
 *(EXCLUDE_FILE(*crtend.o *crtend?.o) .dtors)
 *(SORT(.dtors.*))
 *(.dtors)
 *(.rodata*)
 .rodata        0x0000d148       0x56 ./devices_src/tbr.o
 *fill*         0x0000d19e        0x2 
 .rodata.nav_pvt_gps_data
                0x0000d1a0        0x8 ./devices_src/ublox_gps.o
 .rodata.cfg_prt_spi
                0x0000d1a8       0x1c ./devices_src/ublox_gps.o
 .rodata.cfg_prt_usb
                0x0000d1c4       0x1c ./devices_src/ublox_gps.o
 .rodata.cfg_prt_ddc
                0x0000d1e0       0x1c ./devices_src/ublox_gps.o
 .rodata.cfg_pm2_on_off
                0x0000d1fc       0x34 ./devices_src/ublox_gps.o
 .rodata.cfg_sbas_disable
                0x0000d230       0x10 ./devices_src/ublox_gps.o
 .rodata.cfg_rxm_psm_mode
                0x0000d240        0xa ./devices_src/ublox_gps.o
 *fill*         0x0000d24a        0x2 
 .rodata.cfg_rxm_poll_psm
                0x0000d24c        0x8 ./devices_src/ublox_gps.o
 .rodata        0x0000d254       0x1f ./devices_src/ublox_gps.o
 *fill*         0x0000d273        0x1 
 .rodata        0x0000d274       0x18 ./drivers_src/rs232.o
 .rodata        0x0000d28c       0x18 ./drivers_src/spi.o
 .rodata        0x0000d2a4        0xf ./fat_filesystem_src/ff.o
 *fill*         0x0000d2b3        0x1 
 .rodata        0x0000d2b4       0x5f ./hal/hal.o
 *fill*         0x0000d313        0x1 
 .rodata.rxlorairqmask
                0x0000d314        0x3 ./lmic/radio.o
 *fill*         0x0000d317        0x1 
 .rodata.LORA_RXDONE_FIXUP
                0x0000d318        0xe ./lmic/radio.o
 *fill*         0x0000d326        0x2 
 .rodata        0x0000d328      0x124 ./resource managers_src/app_manager.o
 .rodata        0x0000d44c       0xfc ./resource managers_src/lpwan_manager.o
 .rodata        0x0000d548       0x3e ./src/main.o
 .rodata.str1.1
                0x0000d586        0x2 c:/siliconlabs/simplicitystudio/v4/developer/toolchains/gnu_arm/4.9_2015q3/bin/../lib/gcc/arm-none-eabi/4.9.3/../../../../arm-none-eabi/lib/armv7-m\libc_nano.a(lib_a-impure.o)
 .rodata._global_impure_ptr
                0x0000d588        0x4 c:/siliconlabs/simplicitystudio/v4/developer/toolchains/gnu_arm/4.9_2015q3/bin/../lib/gcc/arm-none-eabi/4.9.3/../../../../arm-none-eabi/lib/armv7-m\libc_nano.a(lib_a-impure.o)
                0x0000d588                _global_impure_ptr
 .rodata.str1.1
                0x0000d58c       0x12 c:/siliconlabs/simplicitystudio/v4/developer/toolchains/gnu_arm/4.9_2015q3/bin/../lib/gcc/arm-none-eabi/4.9.3/../../../../arm-none-eabi/lib/armv7-m\libc_nano.a(lib_a-nano-vfprintf_float.o)
 .rodata.str1.1
                0x0000d59e       0x22 c:/siliconlabs/simplicitystudio/v4/developer/toolchains/gnu_arm/4.9_2015q3/bin/../lib/gcc/arm-none-eabi/4.9.3/../../../../arm-none-eabi/lib/armv7-m\libc_nano.a(lib_a-nano-vfprintf_i.o)
 .rodata._ctype_
                0x0000d5c0      0x101 c:/siliconlabs/simplicitystudio/v4/developer/toolchains/gnu_arm/4.9_2015q3/bin/../lib/gcc/arm-none-eabi/4.9.3/../../../../arm-none-eabi/lib/armv7-m\libc_nano.a(lib_a-ctype_.o)
                0x0000d5c0                _ctype_
 .rodata.str1.1
                0x0000d6c1        0xd c:/siliconlabs/simplicitystudio/v4/developer/toolchains/gnu_arm/4.9_2015q3/bin/../lib/gcc/arm-none-eabi/4.9.3/../../../../arm-none-eabi/lib/armv7-m\libc_nano.a(lib_a-dtoa.o)
                                  0xf (size before relaxing)
 .rodata.str1.1
                0x0000d6ce        0x8 c:/siliconlabs/simplicitystudio/v4/developer/toolchains/gnu_arm/4.9_2015q3/bin/../lib/gcc/arm-none-eabi/4.9.3/../../../../arm-none-eabi/lib/armv7-m\libc_nano.a(lib_a-locale.o)
                                  0xb (size before relaxing)
 *fill*         0x0000d6d6        0x2 
 .rodata.__mprec_tens
                0x0000d6d8       0xc8 c:/siliconlabs/simplicitystudio/v4/developer/toolchains/gnu_arm/4.9_2015q3/bin/../lib/gcc/arm-none-eabi/4.9.3/../../../../arm-none-eabi/lib/armv7-m\libc_nano.a(lib_a-mprec.o)
                0x0000d6d8                __mprec_tens
 .rodata.__mprec_bigtens
                0x0000d7a0       0x28 c:/siliconlabs/simplicitystudio/v4/developer/toolchains/gnu_arm/4.9_2015q3/bin/../lib/gcc/arm-none-eabi/4.9.3/../../../../arm-none-eabi/lib/armv7-m\libc_nano.a(lib_a-mprec.o)
                0x0000d7a0                __mprec_bigtens
 .rodata.p05.5314
                0x0000d7c8        0xc c:/siliconlabs/simplicitystudio/v4/developer/toolchains/gnu_arm/4.9_2015q3/bin/../lib/gcc/arm-none-eabi/4.9.3/../../../../arm-none-eabi/lib/armv7-m\libc_nano.a(lib_a-mprec.o)
 .rodata.str1.1
                0x0000d7d4       0x11 c:/siliconlabs/simplicitystudio/v4/developer/toolchains/gnu_arm/4.9_2015q3/bin/../lib/gcc/arm-none-eabi/4.9.3/../../../../arm-none-eabi/lib/armv7-m\libc_nano.a(lib_a-nano-svfprintf.o)
 *(.eh_frame*)
 *fill*         0x0000d7e5        0x3 
 .eh_frame      0x0000d7e8        0x0 c:/siliconlabs/simplicitystudio/v4/developer/toolchains/gnu_arm/4.9_2015q3/bin/../lib/gcc/arm-none-eabi/4.9.3/armv7-m/crtbegin.o
 .eh_frame      0x0000d7e8        0x0 c:/siliconlabs/simplicitystudio/v4/developer/toolchains/gnu_arm/4.9_2015q3/bin/../lib/gcc/arm-none-eabi/4.9.3/../../../../arm-none-eabi/lib/armv7-m\libc_nano.a(lib_a-strcmp.o)
                                 0x28 (size before relaxing)
 .eh_frame      0x0000d7e8        0x4 c:/siliconlabs/simplicitystudio/v4/developer/toolchains/gnu_arm/4.9_2015q3/bin/../lib/gcc/arm-none-eabi/4.9.3/armv7-m/crtend.o

.glue_7         0x0000d7ec        0x0
 .glue_7        0x00000000        0x0 linker stubs

.glue_7t        0x0000d7ec        0x0
 .glue_7t       0x00000000        0x0 linker stubs

.vfp11_veneer   0x0000d7ec        0x0
 .vfp11_veneer  0x00000000        0x0 linker stubs

.v4_bx          0x0000d7ec        0x0
 .v4_bx         0x00000000        0x0 linker stubs

.iplt           0x0000d7ec        0x0
 .iplt          0x00000000        0x0 c:/siliconlabs/simplicitystudio/v4/developer/toolchains/gnu_arm/4.9_2015q3/bin/../lib/gcc/arm-none-eabi/4.9.3/armv7-m/crtbegin.o

.ARM.extab
 *(.ARM.extab* .gnu.linkonce.armextab.*)
                0x0000d7ec                __exidx_start = .

.ARM.exidx      0x0000d7ec        0x8
 *(.ARM.exidx* .gnu.linkonce.armexidx.*)
 .ARM.exidx     0x0000d7ec        0x8 c:/siliconlabs/simplicitystudio/v4/developer/toolchains/gnu_arm/4.9_2015q3/bin/../lib/gcc/arm-none-eabi/4.9.3/../../../../arm-none-eabi/lib/armv7-m/crt0.o
 .ARM.exidx     0x0000d7f4        0x0 c:/siliconlabs/simplicitystudio/v4/developer/toolchains/gnu_arm/4.9_2015q3/bin/../lib/gcc/arm-none-eabi/4.9.3/armv7-m\libgcc.a(_divdi3.o)
                                  0x8 (size before relaxing)
 .ARM.exidx     0x0000d7f4        0x0 c:/siliconlabs/simplicitystudio/v4/developer/toolchains/gnu_arm/4.9_2015q3/bin/../lib/gcc/arm-none-eabi/4.9.3/armv7-m\libgcc.a(_udivdi3.o)
                                  0x8 (size before relaxing)
                0x0000d7f4                __exidx_end = .
                0x0000d7f4                __etext = .

.rel.dyn        0x0000d7f4        0x0
 .rel.iplt      0x00000000        0x0 c:/siliconlabs/simplicitystudio/v4/developer/toolchains/gnu_arm/4.9_2015q3/bin/../lib/gcc/arm-none-eabi/4.9.3/armv7-m/crtbegin.o

.data           0x20000000       0xc4 load address 0x0000d7f4
                0x20000000                __data_start__ = .
 *(vtable)
 *(.data*)
 .data.SystemHFXOClock
                0x20000000        0x4 ./CMSIS/EFM32GG/system_efm32gg.o
 .data.SystemLFXOClock
                0x20000004        0x4 ./CMSIS/EFM32GG/system_efm32gg.o
 .data.SystemCoreClock
                0x20000008        0x4 ./CMSIS/EFM32GG/system_efm32gg.o
                0x20000008                SystemCoreClock
 .data.isr_rx_tx_char
                0x2000000c        0x1 ./drivers_src/rs485.o
 *fill*         0x2000000d        0x3 
 .data.one_sec_top_ref
                0x20000010        0x4 ./hal/hal.o
 .data.last_letimer_count
                0x20000014        0x4 ./hal/hal.o
 .data.impure_data
                0x20000018       0x60 c:/siliconlabs/simplicitystudio/v4/developer/toolchains/gnu_arm/4.9_2015q3/bin/../lib/gcc/arm-none-eabi/4.9.3/../../../../arm-none-eabi/lib/armv7-m\libc_nano.a(lib_a-impure.o)
 .data._impure_ptr
                0x20000078        0x4 c:/siliconlabs/simplicitystudio/v4/developer/toolchains/gnu_arm/4.9_2015q3/bin/../lib/gcc/arm-none-eabi/4.9.3/../../../../arm-none-eabi/lib/armv7-m\libc_nano.a(lib_a-impure.o)
                0x20000078                _impure_ptr
 .data.__ctype_ptr__
                0x2000007c        0x4 c:/siliconlabs/simplicitystudio/v4/developer/toolchains/gnu_arm/4.9_2015q3/bin/../lib/gcc/arm-none-eabi/4.9.3/../../../../arm-none-eabi/lib/armv7-m\libc_nano.a(lib_a-ctype_.o)
                0x2000007c                __ctype_ptr__
 .data.lconv    0x20000080       0x38 c:/siliconlabs/simplicitystudio/v4/developer/toolchains/gnu_arm/4.9_2015q3/bin/../lib/gcc/arm-none-eabi/4.9.3/../../../../arm-none-eabi/lib/armv7-m\libc_nano.a(lib_a-locale.o)
                0x200000b8                . = ALIGN (0x4)
 *(.ram)
                0x200000b8                . = ALIGN (0x4)
                0x200000b8                PROVIDE (__preinit_array_start, .)
 *(.preinit_array)
                0x200000b8                PROVIDE (__preinit_array_end, .)
                0x200000b8                . = ALIGN (0x4)
                0x200000b8                PROVIDE (__init_array_start, .)
 *(SORT(.init_array.*))
 *(.init_array)
 .init_array    0x200000b8        0x4 c:/siliconlabs/simplicitystudio/v4/developer/toolchains/gnu_arm/4.9_2015q3/bin/../lib/gcc/arm-none-eabi/4.9.3/armv7-m/crtbegin.o
                0x200000bc                PROVIDE (__init_array_end, .)
                0x200000bc                . = ALIGN (0x4)
                0x200000bc                PROVIDE (__fini_array_start, .)
 *(SORT(.fini_array.*))
 *(.fini_array)
 .fini_array    0x200000bc        0x4 c:/siliconlabs/simplicitystudio/v4/developer/toolchains/gnu_arm/4.9_2015q3/bin/../lib/gcc/arm-none-eabi/4.9.3/armv7-m/crtbegin.o
                0x200000c0                PROVIDE (__fini_array_end, .)
 *(.jcr*)
 .jcr           0x200000c0        0x0 c:/siliconlabs/simplicitystudio/v4/developer/toolchains/gnu_arm/4.9_2015q3/bin/../lib/gcc/arm-none-eabi/4.9.3/armv7-m/crtbegin.o
 .jcr           0x200000c0        0x4 c:/siliconlabs/simplicitystudio/v4/developer/toolchains/gnu_arm/4.9_2015q3/bin/../lib/gcc/arm-none-eabi/4.9.3/armv7-m/crtend.o
                0x200000c4                . = ALIGN (0x4)
                0x200000c4                __data_end__ = .

.igot.plt       0x200000c4        0x0 load address 0x0000d8b8
 .igot.plt      0x00000000        0x0 c:/siliconlabs/simplicitystudio/v4/developer/toolchains/gnu_arm/4.9_2015q3/bin/../lib/gcc/arm-none-eabi/4.9.3/armv7-m/crtbegin.o

.bss            0x200000c8     0x1f54 load address 0x0000d8c0
                0x200000c8                . = ALIGN (0x4)
                0x200000c8                __bss_start__ = .
 *(.bss*)
 .bss           0x200000c8       0x1c c:/siliconlabs/simplicitystudio/v4/developer/toolchains/gnu_arm/4.9_2015q3/bin/../lib/gcc/arm-none-eabi/4.9.3/armv7-m/crtbegin.o
 .bss.array_msg
                0x200000e4      0x400 ./devices_src/tbr.o
 .bss.array_size
                0x200004e4        0x4 ./devices_src/tbr.o
 .bss.array_front
                0x200004e8        0x4 ./devices_src/tbr.o
 .bss.array_rear
                0x200004ec        0x4 ./devices_src/tbr.o
 .bss.current_rx_fifo
                0x200004f0        0x1 ./drivers_src/rs485.o
 .bss.first_char
                0x200004f1        0x1 ./drivers_src/rs485.o
 .bss.last_char
                0x200004f2        0x1 ./drivers_src/rs485.o
 *fill*         0x200004f3        0x1 
 .bss.real_time_buf_size
                0x200004f4        0x2 ./drivers_src/rs485.o
 .bss.init_flag
                0x200004f6        0x1 ./fat_filesystem_src/diskio.o
 *fill*         0x200004f7        0x1 
 .bss.FatFs     0x200004f8        0x4 ./fat_filesystem_src/ff.o
 .bss.Fsid      0x200004fc        0x2 ./fat_filesystem_src/ff.o
 *fill*         0x200004fe        0x2 
 .bss.fifo_rx_size
                0x20000500        0x4 ./fifo_buffers_src/fifo_rs232.o
 .bss.fifo_tx_size
                0x20000504        0x4 ./fifo_buffers_src/fifo_rs232.o
 .bss.fifo_rx_front
                0x20000508        0x4 ./fifo_buffers_src/fifo_rs232.o
 .bss.fifo_tx_front
                0x2000050c        0x4 ./fifo_buffers_src/fifo_rs232.o
 .bss.fifo_rx_rear
                0x20000510        0x4 ./fifo_buffers_src/fifo_rs232.o
 .bss.fifo_tx_rear
                0x20000514        0x4 ./fifo_buffers_src/fifo_rs232.o
 .bss.fifo_tx   0x20000518      0x200 ./fifo_buffers_src/fifo_rs232.o
 .bss.fifo_rx   0x20000718       0x10 ./fifo_buffers_src/fifo_rs232.o
 .bss.fifo_rx_data_size
                0x20000728        0x4 ./fifo_buffers_src/fifo_tbr.o
 .bss.fifo_rx_cmd_size
                0x2000072c        0x4 ./fifo_buffers_src/fifo_tbr.o
 .bss.fifo_tx_cmd_size
                0x20000730        0x4 ./fifo_buffers_src/fifo_tbr.o
 .bss.fifo_rx_cmd_front
                0x20000734        0x4 ./fifo_buffers_src/fifo_tbr.o
 .bss.fifo_tx_cmd_front
                0x20000738        0x4 ./fifo_buffers_src/fifo_tbr.o
 .bss.fifo_rx_data_front
                0x2000073c        0x4 ./fifo_buffers_src/fifo_tbr.o
 .bss.fifo_rx_cmd_rear
                0x20000740        0x4 ./fifo_buffers_src/fifo_tbr.o
 .bss.fifo_tx_cmd_rear
                0x20000744        0x4 ./fifo_buffers_src/fifo_tbr.o
 .bss.fifo_rx_data_rear
                0x20000748        0x4 ./fifo_buffers_src/fifo_tbr.o
 .bss.fifo_tx_cmd
                0x2000074c       0x10 ./fifo_buffers_src/fifo_tbr.o
 .bss.fifo_rx_cmd
                0x2000075c        0x0 ./fifo_buffers_src/fifo_tbr.o
 .bss.fifo_rx_data
                0x2000075c      0x400 ./fifo_buffers_src/fifo_tbr.o
 *fill*         0x20000b5c        0x4 
 .bss.HAL       0x20000b60        0x8 ./hal/hal.o
 .bss.letimer_running
                0x20000b68        0x1 ./hal/hal.o
 *fill*         0x20000b69        0x1 
 .bss.average_n
                0x20000b6a        0x2 ./hal/hal.o
 .bss.avergae_sum
                0x20000b6c        0x4 ./hal/hal.o
 .bss.ref_count
                0x20000b70        0x4 ./hal/hal.o
 .bss.time_manager_cmd
                0x20000b74        0x1 ./hal/hal.o
 *fill*         0x20000b75        0x3 
 .bss.time_count
                0x20000b78        0x4 ./hal/hal.o
 .bss.rtcInitialized
                0x20000b7c        0x1 ./hal/hal.o
 *fill*         0x20000b7d        0x3 
 .bss.rtcFreq   0x20000b80        0x4 ./hal/hal.o
 .bss.irqlevel  0x20000b84        0x1 ./hal/hal.o
 .bss.int_flag  0x20000b85        0x1 ./hal/hal.o
 *fill*         0x20000b86        0x2 
 .bss.OS        0x20000b88        0x8 ./lmic/oslmic.o
 .bss.randbuf   0x20000b90       0x10 ./lmic/radio.o
 .bss.FatFs     0x20000ba0      0x230 ./resource managers_src/app_manager.o
 .bss.tbr_lora_length
                0x20000dd0        0x4 ./resource managers_src/app_manager.o
 .bss.tbr_lora_buf
                0x20000dd4      0x400 ./resource managers_src/app_manager.o
 .bss.tbr_sd_card_buf
                0x200011d4      0x400 ./resource managers_src/app_manager.o
 .bss.rs232_tx_buf
                0x200015d4      0x200 ./resource managers_src/app_manager.o
 .bss.app_job   0x200017d4        0xc ./resource managers_src/lpwan_manager.o
 .bss.rt_job    0x200017e0        0xc ./resource managers_src/lpwan_manager.o
 .bss.rs_rs232_buf
                0x200017ec       0x80 ./resource managers_src/lpwan_manager.o
 .bss.real_time_msg_flag
                0x2000186c        0x1 ./resource managers_src/lpwan_manager.o
                0x2000186c                real_time_msg_flag
 *fill*         0x2000186d        0x3 
 .bss.__malloc_sbrk_start
                0x20001870        0x4 c:/siliconlabs/simplicitystudio/v4/developer/toolchains/gnu_arm/4.9_2015q3/bin/../lib/gcc/arm-none-eabi/4.9.3/../../../../arm-none-eabi/lib/armv7-m\libc_nano.a(lib_a-nano-mallocr.o)
                0x20001870                __malloc_sbrk_start
 .bss.__malloc_free_list
                0x20001874        0x4 c:/siliconlabs/simplicitystudio/v4/developer/toolchains/gnu_arm/4.9_2015q3/bin/../lib/gcc/arm-none-eabi/4.9.3/../../../../arm-none-eabi/lib/armv7-m\libc_nano.a(lib_a-nano-mallocr.o)
                0x20001874                __malloc_free_list
 .bss.heap_end.4079
                0x20001878        0x4 c:/siliconlabs/simplicitystudio/v4/developer/toolchains/gnu_arm/4.9_2015q3/bin/../lib/gcc/arm-none-eabi/4.9.3/../../../../arm-none-eabi/lib/armv7-m\libnosys.a(sbrk.o)
 *(COMMON)
 COMMON         0x2000187c       0x80 ./devices_src/tbr.o
                0x2000187c                resuable_buffer
 COMMON         0x200018fc       0x84 ./hal/hal.o
                0x200018fc                irqState
                0x20001900                temp_buf
 COMMON         0x20001980      0x244 ./lmic/lmic.o
                0x20001980                LMIC
 COMMON         0x20001bc4      0x454 ./resource managers_src/lpwan_manager.o
                0x20001bc4                diff_in_tstamp
                0x20001bc8                running_tstamp
                0x20001bf0                ref_tstamp
                0x20001c18                real_time_buf
 COMMON         0x20002018        0x4 c:/siliconlabs/simplicitystudio/v4/developer/toolchains/gnu_arm/4.9_2015q3/bin/../lib/gcc/arm-none-eabi/4.9.3/../../../../arm-none-eabi/lib/armv7-m\libc_nano.a(lib_a-reent.o)
                0x20002018                errno
                0x2000201c                . = ALIGN (0x4)
                0x2000201c                __bss_end__ = .

.heap           0x20002020      0xc00
                0x20002020                __HeapBase = .
                0x20002020                __end__ = .
                0x20002020                end = __end__
                0x20002020                _end = __end__
 *(.heap*)
 .heap          0x20002020      0xc00 ./CMSIS/EFM32GG/startup_efm32gg.o
                0x20002c20                __HeapLimit = .

.stack_dummy    0x20002020      0x400
 *(.stack*)
 .stack         0x20002020      0x400 ./CMSIS/EFM32GG/startup_efm32gg.o
                0x20020000                __StackTop = (ORIGIN (RAM) + 0x20000)
                0x2001fc00                __StackLimit = (__StackTop - SIZEOF (.stack_dummy))
                0x20020000                PROVIDE (__stack, __StackTop)
                0x00000001                ASSERT ((__StackLimit >= __HeapLimit), region RAM overflowed with stack)
                0x00000001                ASSERT ((0x100000 >= (__etext + SIZEOF (.data))), FLASH memory overflowed !)
OUTPUT(lmic_and_testproject_iA.axf elf32-littlearm)

.ARM.attributes
                0x00000000       0x29
 .ARM.attributes
                0x00000000       0x1d c:/siliconlabs/simplicitystudio/v4/developer/toolchains/gnu_arm/4.9_2015q3/bin/../lib/gcc/arm-none-eabi/4.9.3/armv7-m/crti.o
 .ARM.attributes
                0x0000001d       0x2d c:/siliconlabs/simplicitystudio/v4/developer/toolchains/gnu_arm/4.9_2015q3/bin/../lib/gcc/arm-none-eabi/4.9.3/armv7-m/crtbegin.o
 .ARM.attributes
                0x0000004a       0x1b c:/siliconlabs/simplicitystudio/v4/developer/toolchains/gnu_arm/4.9_2015q3/bin/../lib/gcc/arm-none-eabi/4.9.3/../../../../arm-none-eabi/lib/armv7-m/crt0.o
 .ARM.attributes
                0x00000065       0x1b ./CMSIS/EFM32GG/startup_efm32gg.o
 .ARM.attributes
                0x00000080       0x33 ./CMSIS/EFM32GG/system_efm32gg.o
 .ARM.attributes
                0x000000b3       0x33 ./devices_src/rgb_led.o
 .ARM.attributes
                0x000000e6       0x33 ./devices_src/sd_card.o
 .ARM.attributes
                0x00000119       0x33 ./devices_src/tbr.o
 .ARM.attributes
                0x0000014c       0x33 ./devices_src/ublox_gps.o
 .ARM.attributes
                0x0000017f       0x33 ./drivers_src/delay.o
 .ARM.attributes
                0x000001b2       0x33 ./drivers_src/pwm.o
 .ARM.attributes
                0x000001e5       0x33 ./drivers_src/rs232.o
 .ARM.attributes
                0x00000218       0x33 ./drivers_src/rs485.o
 .ARM.attributes
                0x0000024b       0x33 ./drivers_src/spi.o
 .ARM.attributes
                0x0000027e       0x33 ./emlib/src/em_burtc.o
 .ARM.attributes
                0x000002b1       0x33 ./emlib/src/em_cmu.o
 .ARM.attributes
                0x000002e4       0x33 ./emlib/src/em_core.o
 .ARM.attributes
                0x00000317       0x33 ./emlib/src/em_dma.o
 .ARM.attributes
                0x0000034a       0x33 ./emlib/src/em_gpio.o
 .ARM.attributes
                0x0000037d       0x33 ./emlib/src/em_letimer.o
 .ARM.attributes
                0x000003b0       0x33 ./emlib/src/em_leuart.o
 .ARM.attributes
                0x000003e3       0x33 ./emlib/src/em_rmu.o
 .ARM.attributes
                0x00000416       0x33 ./emlib/src/em_rtc.o
 .ARM.attributes
                0x00000449       0x33 ./emlib/src/em_system.o
 .ARM.attributes
                0x0000047c       0x33 ./emlib/src/em_timer.o
 .ARM.attributes
                0x000004af       0x33 ./emlib/src/em_usart.o
 .ARM.attributes
                0x000004e2       0x33 ./fat_filesystem_src/diskio.o
 .ARM.attributes
                0x00000515       0x33 ./fat_filesystem_src/ff.o
 .ARM.attributes
                0x00000548       0x33 ./fifo_buffers_src/fifo_rs232.o
 .ARM.attributes
                0x0000057b       0x33 ./fifo_buffers_src/fifo_tbr.o
 .ARM.attributes
                0x000005ae       0x33 ./hal/debug.o
 .ARM.attributes
                0x000005e1       0x33 ./hal/hal.o
 .ARM.attributes
                0x00000614       0x33 ./lmic/lmic.o
 .ARM.attributes
                0x00000647       0x33 ./lmic/oslmic.o
 .ARM.attributes
                0x0000067a       0x33 ./lmic/radio.o
 .ARM.attributes
                0x000006ad       0x33 ./resource managers_src/app_manager.o
 .ARM.attributes
                0x000006e0       0x33 ./resource managers_src/lpwan_manager.o
 .ARM.attributes
                0x00000713       0x33 ./src/main.o
 .ARM.attributes
                0x00000746       0x1d c:/siliconlabs/simplicitystudio/v4/developer/toolchains/gnu_arm/4.9_2015q3/bin/../lib/gcc/arm-none-eabi/4.9.3/armv7-m\libgcc.a(_arm_addsubdf3.o)
 .ARM.attributes
                0x00000763       0x1d c:/siliconlabs/simplicitystudio/v4/developer/toolchains/gnu_arm/4.9_2015q3/bin/../lib/gcc/arm-none-eabi/4.9.3/armv7-m\libgcc.a(_arm_addsubsf3.o)
 .ARM.attributes
                0x00000780       0x1d c:/siliconlabs/simplicitystudio/v4/developer/toolchains/gnu_arm/4.9_2015q3/bin/../lib/gcc/arm-none-eabi/4.9.3/armv7-m\libgcc.a(_arm_muldivsf3.o)
 .ARM.attributes
                0x0000079d       0x1d c:/siliconlabs/simplicitystudio/v4/developer/toolchains/gnu_arm/4.9_2015q3/bin/../lib/gcc/arm-none-eabi/4.9.3/armv7-m\libgcc.a(_arm_cmpsf2.o)
 .ARM.attributes
                0x000007ba       0x1d c:/siliconlabs/simplicitystudio/v4/developer/toolchains/gnu_arm/4.9_2015q3/bin/../lib/gcc/arm-none-eabi/4.9.3/armv7-m\libgcc.a(_arm_fixsfsi.o)
 .ARM.attributes
                0x000007d7       0x1d c:/siliconlabs/simplicitystudio/v4/developer/toolchains/gnu_arm/4.9_2015q3/bin/../lib/gcc/arm-none-eabi/4.9.3/armv7-m\libgcc.a(_aeabi_uldivmod.o)
 .ARM.attributes
                0x000007f4       0x2d c:/siliconlabs/simplicitystudio/v4/developer/toolchains/gnu_arm/4.9_2015q3/bin/../lib/gcc/arm-none-eabi/4.9.3/armv7-m\libgcc.a(bpabi.o)
 .ARM.attributes
                0x00000821       0x1d c:/siliconlabs/simplicitystudio/v4/developer/toolchains/gnu_arm/4.9_2015q3/bin/../lib/gcc/arm-none-eabi/4.9.3/armv7-m\libgcc.a(_dvmd_tls.o)
 .ARM.attributes
                0x0000083e       0x2d c:/siliconlabs/simplicitystudio/v4/developer/toolchains/gnu_arm/4.9_2015q3/bin/../lib/gcc/arm-none-eabi/4.9.3/armv7-m\libgcc.a(_divdi3.o)
 .ARM.attributes
                0x0000086b       0x2d c:/siliconlabs/simplicitystudio/v4/developer/toolchains/gnu_arm/4.9_2015q3/bin/../lib/gcc/arm-none-eabi/4.9.3/armv7-m\libgcc.a(_udivdi3.o)
 .ARM.attributes
                0x00000898       0x2d c:/siliconlabs/simplicitystudio/v4/developer/toolchains/gnu_arm/4.9_2015q3/bin/../lib/gcc/arm-none-eabi/4.9.3/../../../../arm-none-eabi/lib/armv7-m\libc_nano.a(lib_a-exit.o)
 .ARM.attributes
                0x000008c5       0x2d c:/siliconlabs/simplicitystudio/v4/developer/toolchains/gnu_arm/4.9_2015q3/bin/../lib/gcc/arm-none-eabi/4.9.3/../../../../arm-none-eabi/lib/armv7-m\libc_nano.a(lib_a-impure.o)
 .ARM.attributes
                0x000008f2       0x2d c:/siliconlabs/simplicitystudio/v4/developer/toolchains/gnu_arm/4.9_2015q3/bin/../lib/gcc/arm-none-eabi/4.9.3/../../../../arm-none-eabi/lib/armv7-m\libc_nano.a(lib_a-init.o)
 .ARM.attributes
                0x0000091f       0x2d c:/siliconlabs/simplicitystudio/v4/developer/toolchains/gnu_arm/4.9_2015q3/bin/../lib/gcc/arm-none-eabi/4.9.3/../../../../arm-none-eabi/lib/armv7-m\libc_nano.a(lib_a-memcpy.o)
 .ARM.attributes
                0x0000094c       0x2d c:/siliconlabs/simplicitystudio/v4/developer/toolchains/gnu_arm/4.9_2015q3/bin/../lib/gcc/arm-none-eabi/4.9.3/../../../../arm-none-eabi/lib/armv7-m\libc_nano.a(lib_a-memset.o)
 .ARM.attributes
                0x00000979       0x2d c:/siliconlabs/simplicitystudio/v4/developer/toolchains/gnu_arm/4.9_2015q3/bin/../lib/gcc/arm-none-eabi/4.9.3/../../../../arm-none-eabi/lib/armv7-m\libc_nano.a(lib_a-nano-vfprintf_float.o)
 .ARM.attributes
                0x000009a6       0x2d c:/siliconlabs/simplicitystudio/v4/developer/toolchains/gnu_arm/4.9_2015q3/bin/../lib/gcc/arm-none-eabi/4.9.3/../../../../arm-none-eabi/lib/armv7-m\libc_nano.a(lib_a-nano-vfprintf_i.o)
 .ARM.attributes
                0x000009d3       0x2d c:/siliconlabs/simplicitystudio/v4/developer/toolchains/gnu_arm/4.9_2015q3/bin/../lib/gcc/arm-none-eabi/4.9.3/../../../../arm-none-eabi/lib/armv7-m\libc_nano.a(lib_a-s_fpclassify.o)
 .ARM.attributes
                0x00000a00       0x2d c:/siliconlabs/simplicitystudio/v4/developer/toolchains/gnu_arm/4.9_2015q3/bin/../lib/gcc/arm-none-eabi/4.9.3/../../../../arm-none-eabi/lib/armv7-m\libc_nano.a(lib_a-sprintf.o)
 .ARM.attributes
                0x00000a2d       0x2d c:/siliconlabs/simplicitystudio/v4/developer/toolchains/gnu_arm/4.9_2015q3/bin/../lib/gcc/arm-none-eabi/4.9.3/../../../../arm-none-eabi/lib/armv7-m\libc_nano.a(lib_a-strchr.o)
 .ARM.attributes
                0x00000a5a       0x2d c:/siliconlabs/simplicitystudio/v4/developer/toolchains/gnu_arm/4.9_2015q3/bin/../lib/gcc/arm-none-eabi/4.9.3/../../../../arm-none-eabi/lib/armv7-m\libc_nano.a(lib_a-strlen.o)
 .ARM.attributes
                0x00000a87       0x2d c:/siliconlabs/simplicitystudio/v4/developer/toolchains/gnu_arm/4.9_2015q3/bin/../lib/gcc/arm-none-eabi/4.9.3/../../../../arm-none-eabi/lib/armv7-m\libc_nano.a(lib_a-strncmp.o)
 .ARM.attributes
                0x00000ab4       0x2d c:/siliconlabs/simplicitystudio/v4/developer/toolchains/gnu_arm/4.9_2015q3/bin/../lib/gcc/arm-none-eabi/4.9.3/../../../../arm-none-eabi/lib/armv7-m\libc_nano.a(lib_a-strstr.o)
 .ARM.attributes
                0x00000ae1       0x2d c:/siliconlabs/simplicitystudio/v4/developer/toolchains/gnu_arm/4.9_2015q3/bin/../lib/gcc/arm-none-eabi/4.9.3/../../../../arm-none-eabi/lib/armv7-m\libc_nano.a(lib_a-strtok.o)
 .ARM.attributes
                0x00000b0e       0x2d c:/siliconlabs/simplicitystudio/v4/developer/toolchains/gnu_arm/4.9_2015q3/bin/../lib/gcc/arm-none-eabi/4.9.3/../../../../arm-none-eabi/lib/armv7-m\libc_nano.a(lib_a-strtok_r.o)
 .ARM.attributes
                0x00000b3b       0x2d c:/siliconlabs/simplicitystudio/v4/developer/toolchains/gnu_arm/4.9_2015q3/bin/../lib/gcc/arm-none-eabi/4.9.3/../../../../arm-none-eabi/lib/armv7-m\libc_nano.a(lib_a-strtoul.o)
 .ARM.attributes
                0x00000b68       0x2d c:/siliconlabs/simplicitystudio/v4/developer/toolchains/gnu_arm/4.9_2015q3/bin/../lib/gcc/arm-none-eabi/4.9.3/../../../../arm-none-eabi/lib/armv7-m\libc_nano.a(lib_a-ctype_.o)
 .ARM.attributes
                0x00000b95       0x2d c:/siliconlabs/simplicitystudio/v4/developer/toolchains/gnu_arm/4.9_2015q3/bin/../lib/gcc/arm-none-eabi/4.9.3/../../../../arm-none-eabi/lib/armv7-m\libc_nano.a(lib_a-dtoa.o)
 .ARM.attributes
                0x00000bc2       0x2d c:/siliconlabs/simplicitystudio/v4/developer/toolchains/gnu_arm/4.9_2015q3/bin/../lib/gcc/arm-none-eabi/4.9.3/../../../../arm-none-eabi/lib/armv7-m\libc_nano.a(lib_a-locale.o)
 .ARM.attributes
                0x00000bef       0x2d c:/siliconlabs/simplicitystudio/v4/developer/toolchains/gnu_arm/4.9_2015q3/bin/../lib/gcc/arm-none-eabi/4.9.3/../../../../arm-none-eabi/lib/armv7-m\libc_nano.a(lib_a-malloc.o)
 .ARM.attributes
                0x00000c1c       0x2d c:/siliconlabs/simplicitystudio/v4/developer/toolchains/gnu_arm/4.9_2015q3/bin/../lib/gcc/arm-none-eabi/4.9.3/../../../../arm-none-eabi/lib/armv7-m\libc_nano.a(lib_a-memchr.o)
 .ARM.attributes
                0x00000c49       0x2d c:/siliconlabs/simplicitystudio/v4/developer/toolchains/gnu_arm/4.9_2015q3/bin/../lib/gcc/arm-none-eabi/4.9.3/../../../../arm-none-eabi/lib/armv7-m\libc_nano.a(lib_a-mprec.o)
 .ARM.attributes
                0x00000c76       0x2d c:/siliconlabs/simplicitystudio/v4/developer/toolchains/gnu_arm/4.9_2015q3/bin/../lib/gcc/arm-none-eabi/4.9.3/../../../../arm-none-eabi/lib/armv7-m\libc_nano.a(lib_a-nano-callocr.o)
 .ARM.attributes
                0x00000ca3       0x2d c:/siliconlabs/simplicitystudio/v4/developer/toolchains/gnu_arm/4.9_2015q3/bin/../lib/gcc/arm-none-eabi/4.9.3/../../../../arm-none-eabi/lib/armv7-m\libc_nano.a(lib_a-nano-freer.o)
 .ARM.attributes
                0x00000cd0       0x2d c:/siliconlabs/simplicitystudio/v4/developer/toolchains/gnu_arm/4.9_2015q3/bin/../lib/gcc/arm-none-eabi/4.9.3/../../../../arm-none-eabi/lib/armv7-m\libc_nano.a(lib_a-nano-mallocr.o)
 .ARM.attributes
                0x00000cfd       0x2d c:/siliconlabs/simplicitystudio/v4/developer/toolchains/gnu_arm/4.9_2015q3/bin/../lib/gcc/arm-none-eabi/4.9.3/../../../../arm-none-eabi/lib/armv7-m\libc_nano.a(lib_a-nano-svfprintf.o)
 .ARM.attributes
                0x00000d2a       0x2d c:/siliconlabs/simplicitystudio/v4/developer/toolchains/gnu_arm/4.9_2015q3/bin/../lib/gcc/arm-none-eabi/4.9.3/../../../../arm-none-eabi/lib/armv7-m\libc_nano.a(lib_a-sbrkr.o)
 .ARM.attributes
                0x00000d57       0x1b c:/siliconlabs/simplicitystudio/v4/developer/toolchains/gnu_arm/4.9_2015q3/bin/../lib/gcc/arm-none-eabi/4.9.3/../../../../arm-none-eabi/lib/armv7-m\libc_nano.a(lib_a-strcmp.o)
 .ARM.attributes
                0x00000d72       0x2d c:/siliconlabs/simplicitystudio/v4/developer/toolchains/gnu_arm/4.9_2015q3/bin/../lib/gcc/arm-none-eabi/4.9.3/../../../../arm-none-eabi/lib/armv7-m\libc_nano.a(lib_a-memmove.o)
 .ARM.attributes
                0x00000d9f       0x2d c:/siliconlabs/simplicitystudio/v4/developer/toolchains/gnu_arm/4.9_2015q3/bin/../lib/gcc/arm-none-eabi/4.9.3/../../../../arm-none-eabi/lib/armv7-m\libc_nano.a(lib_a-nano-reallocr.o)
 .ARM.attributes
                0x00000dcc       0x2d c:/siliconlabs/simplicitystudio/v4/developer/toolchains/gnu_arm/4.9_2015q3/bin/../lib/gcc/arm-none-eabi/4.9.3/../../../../arm-none-eabi/lib/armv7-m\libc_nano.a(lib_a-reent.o)
 .ARM.attributes
                0x00000df9       0x2d c:/siliconlabs/simplicitystudio/v4/developer/toolchains/gnu_arm/4.9_2015q3/bin/../lib/gcc/arm-none-eabi/4.9.3/../../../../arm-none-eabi/lib/armv7-m\libc_nano.a(lib_a-nano-msizer.o)
 .ARM.attributes
                0x00000e26       0x2d c:/siliconlabs/simplicitystudio/v4/developer/toolchains/gnu_arm/4.9_2015q3/bin/../lib/gcc/arm-none-eabi/4.9.3/../../../../arm-none-eabi/lib/armv7-m\libnosys.a(sbrk.o)
 .ARM.attributes
                0x00000e53       0x2d c:/siliconlabs/simplicitystudio/v4/developer/toolchains/gnu_arm/4.9_2015q3/bin/../lib/gcc/arm-none-eabi/4.9.3/../../../../arm-none-eabi/lib/armv7-m\libnosys.a(_exit.o)
 .ARM.attributes
                0x00000e80       0x1d c:/siliconlabs/simplicitystudio/v4/developer/toolchains/gnu_arm/4.9_2015q3/bin/../lib/gcc/arm-none-eabi/4.9.3/armv7-m\libgcc.a(_arm_muldivdf3.o)
 .ARM.attributes
                0x00000e9d       0x1d c:/siliconlabs/simplicitystudio/v4/developer/toolchains/gnu_arm/4.9_2015q3/bin/../lib/gcc/arm-none-eabi/4.9.3/armv7-m\libgcc.a(_arm_cmpdf2.o)
 .ARM.attributes
                0x00000eba       0x1d c:/siliconlabs/simplicitystudio/v4/developer/toolchains/gnu_arm/4.9_2015q3/bin/../lib/gcc/arm-none-eabi/4.9.3/armv7-m\libgcc.a(_arm_fixdfsi.o)
 .ARM.attributes
                0x00000ed7       0x2d c:/siliconlabs/simplicitystudio/v4/developer/toolchains/gnu_arm/4.9_2015q3/bin/../lib/gcc/arm-none-eabi/4.9.3/armv7-m/crtend.o
 .ARM.attributes
                0x00000f04       0x1d c:/siliconlabs/simplicitystudio/v4/developer/toolchains/gnu_arm/4.9_2015q3/bin/../lib/gcc/arm-none-eabi/4.9.3/armv7-m/crtn.o

.comment        0x00000000       0x70
 .comment       0x00000000       0x70 ./CMSIS/EFM32GG/system_efm32gg.o
                                 0x71 (size before relaxing)
 .comment       0x00000000       0x71 ./devices_src/rgb_led.o
 .comment       0x00000000       0x71 ./devices_src/sd_card.o
 .comment       0x00000000       0x71 ./devices_src/tbr.o
 .comment       0x00000000       0x71 ./devices_src/ublox_gps.o
 .comment       0x00000000       0x71 ./drivers_src/delay.o
 .comment       0x00000000       0x71 ./drivers_src/pwm.o
 .comment       0x00000000       0x71 ./drivers_src/rs232.o
 .comment       0x00000000       0x71 ./drivers_src/rs485.o
 .comment       0x00000000       0x71 ./drivers_src/spi.o
 .comment       0x00000000       0x71 ./emlib/src/em_burtc.o
 .comment       0x00000000       0x71 ./emlib/src/em_cmu.o
 .comment       0x00000000       0x71 ./emlib/src/em_core.o
 .comment       0x00000000       0x71 ./emlib/src/em_dma.o
 .comment       0x00000000       0x71 ./emlib/src/em_gpio.o
 .comment       0x00000000       0x71 ./emlib/src/em_letimer.o
 .comment       0x00000000       0x71 ./emlib/src/em_leuart.o
 .comment       0x00000000       0x71 ./emlib/src/em_rmu.o
 .comment       0x00000000       0x71 ./emlib/src/em_rtc.o
 .comment       0x00000000       0x71 ./emlib/src/em_system.o
 .comment       0x00000000       0x71 ./emlib/src/em_timer.o
 .comment       0x00000000       0x71 ./emlib/src/em_usart.o
 .comment       0x00000000       0x71 ./fat_filesystem_src/diskio.o
 .comment       0x00000000       0x71 ./fat_filesystem_src/ff.o
 .comment       0x00000000       0x71 ./fifo_buffers_src/fifo_rs232.o
 .comment       0x00000000       0x71 ./fifo_buffers_src/fifo_tbr.o
 .comment       0x00000000       0x71 ./hal/debug.o
 .comment       0x00000000       0x71 ./hal/hal.o
 .comment       0x00000000       0x71 ./lmic/lmic.o
 .comment       0x00000000       0x71 ./lmic/oslmic.o
 .comment       0x00000000       0x71 ./lmic/radio.o
 .comment       0x00000000       0x71 ./resource managers_src/app_manager.o
 .comment       0x00000000       0x71 ./resource managers_src/lpwan_manager.o
 .comment       0x00000000       0x71 ./src/main.o

.debug_line     0x00000000     0xb7b3
 .debug_line    0x00000000       0xd3 ./CMSIS/EFM32GG/startup_efm32gg.o
 .debug_line    0x000000d3      0x38d ./CMSIS/EFM32GG/system_efm32gg.o
 .debug_line    0x00000460      0x3fb ./devices_src/rgb_led.o
 .debug_line    0x0000085b      0x572 ./devices_src/sd_card.o
 .debug_line    0x00000dcd      0x5ee ./devices_src/tbr.o
 .debug_line    0x000013bb      0x758 ./devices_src/ublox_gps.o
 .debug_line    0x00001b13      0x3d8 ./drivers_src/delay.o
 .debug_line    0x00001eeb      0x450 ./drivers_src/pwm.o
 .debug_line    0x0000233b      0x4b4 ./drivers_src/rs232.o
 .debug_line    0x000027ef      0x514 ./drivers_src/rs485.o
 .debug_line    0x00002d03      0x44c ./drivers_src/spi.o
 .debug_line    0x0000314f      0x481 ./emlib/src/em_burtc.o
 .debug_line    0x000035d0      0xa53 ./emlib/src/em_cmu.o
 .debug_line    0x00004023      0x63e ./emlib/src/em_core.o
 .debug_line    0x00004661      0x5c3 ./emlib/src/em_dma.o
 .debug_line    0x00004c24      0x4bc ./emlib/src/em_gpio.o
 .debug_line    0x000050e0      0x3f3 ./emlib/src/em_letimer.o
 .debug_line    0x000054d3      0x472 ./emlib/src/em_leuart.o
 .debug_line    0x00005945      0x3cc ./emlib/src/em_rmu.o
 .debug_line    0x00005d11      0x39c ./emlib/src/em_rtc.o
 .debug_line    0x000060ad      0x310 ./emlib/src/em_system.o
 .debug_line    0x000063bd      0x5bf ./emlib/src/em_timer.o
 .debug_line    0x0000697c      0x5f8 ./emlib/src/em_usart.o
 .debug_line    0x00006f74      0x2a8 ./fat_filesystem_src/diskio.o
 .debug_line    0x0000721c     0x124c ./fat_filesystem_src/ff.o
 .debug_line    0x00008468      0x280 ./fifo_buffers_src/fifo_rs232.o
 .debug_line    0x000086e8      0x2ab ./fifo_buffers_src/fifo_tbr.o
 .debug_line    0x00008993      0x2a9 ./hal/debug.o
 .debug_line    0x00008c3c      0x8c0 ./hal/hal.o
 .debug_line    0x000094fc      0xe32 ./lmic/lmic.o
 .debug_line    0x0000a32e      0x2a8 ./lmic/oslmic.o
 .debug_line    0x0000a5d6      0x4f9 ./lmic/radio.o
 .debug_line    0x0000aacf      0x4b8 ./resource managers_src/app_manager.o
 .debug_line    0x0000af87      0x44b ./resource managers_src/lpwan_manager.o
 .debug_line    0x0000b3d2      0x3e1 ./src/main.o

.debug_info     0x00000000    0x16ecb
 .debug_info    0x00000000      0x10e ./CMSIS/EFM32GG/startup_efm32gg.o
 .debug_info    0x0000010e      0x5a1 ./CMSIS/EFM32GG/system_efm32gg.o
 .debug_info    0x000006af      0x5df ./devices_src/rgb_led.o
 .debug_info    0x00000c8e      0x61c ./devices_src/sd_card.o
 .debug_info    0x000012aa      0xae1 ./devices_src/tbr.o
 .debug_info    0x00001d8b      0xb23 ./devices_src/ublox_gps.o
 .debug_info    0x000028ae      0x801 ./drivers_src/delay.o
 .debug_info    0x000030af      0x8f1 ./drivers_src/pwm.o
 .debug_info    0x000039a0      0xd3e ./drivers_src/rs232.o
 .debug_info    0x000046de      0xd2d ./drivers_src/rs485.o
 .debug_info    0x0000540b      0x9da ./drivers_src/spi.o
 .debug_info    0x00005de5      0x627 ./emlib/src/em_burtc.o
 .debug_info    0x0000640c     0x1508 ./emlib/src/em_cmu.o
 .debug_info    0x00007914      0xcd6 ./emlib/src/em_core.o
 .debug_info    0x000085ea     0x12c4 ./emlib/src/em_dma.o
 .debug_info    0x000098ae      0x65b ./emlib/src/em_gpio.o
 .debug_info    0x00009f09      0x51f ./emlib/src/em_letimer.o
 .debug_info    0x0000a428      0x824 ./emlib/src/em_leuart.o
 .debug_info    0x0000ac4c      0x4ad ./emlib/src/em_rmu.o
 .debug_info    0x0000b0f9      0x33f ./emlib/src/em_rtc.o
 .debug_info    0x0000b438      0x272 ./emlib/src/em_system.o
 .debug_info    0x0000b6aa      0x90f ./emlib/src/em_timer.o
 .debug_info    0x0000bfb9      0xe92 ./emlib/src/em_usart.o
 .debug_info    0x0000ce4b      0x2c1 ./fat_filesystem_src/diskio.o
 .debug_info    0x0000d10c     0x1dd6 ./fat_filesystem_src/ff.o
 .debug_info    0x0000eee2      0x275 ./fifo_buffers_src/fifo_rs232.o
 .debug_info    0x0000f157      0x2ce ./fifo_buffers_src/fifo_tbr.o
 .debug_info    0x0000f425      0x461 ./hal/debug.o
 .debug_info    0x0000f886     0x1c31 ./hal/hal.o
 .debug_info    0x000114b7     0x27db ./lmic/lmic.o
 .debug_info    0x00013c92      0x62c ./lmic/oslmic.o
 .debug_info    0x000142be      0xf4f ./lmic/radio.o
 .debug_info    0x0001520d      0xa8a ./resource managers_src/app_manager.o
 .debug_info    0x00015c97      0x9c0 ./resource managers_src/lpwan_manager.o
 .debug_info    0x00016657      0x874 ./src/main.o

.debug_abbrev   0x00000000     0x3d16
 .debug_abbrev  0x00000000       0x14 ./CMSIS/EFM32GG/startup_efm32gg.o
 .debug_abbrev  0x00000014      0x1a3 ./CMSIS/EFM32GG/system_efm32gg.o
 .debug_abbrev  0x000001b7      0x15a ./devices_src/rgb_led.o
 .debug_abbrev  0x00000311      0x1c0 ./devices_src/sd_card.o
 .debug_abbrev  0x000004d1      0x21f ./devices_src/tbr.o
 .debug_abbrev  0x000006f0      0x1d1 ./devices_src/ublox_gps.o
 .debug_abbrev  0x000008c1      0x1a4 ./drivers_src/delay.o
 .debug_abbrev  0x00000a65      0x1ba ./drivers_src/pwm.o
 .debug_abbrev  0x00000c1f      0x1cd ./drivers_src/rs232.o
 .debug_abbrev  0x00000dec      0x1e9 ./drivers_src/rs485.o
 .debug_abbrev  0x00000fd5      0x1a2 ./drivers_src/spi.o
 .debug_abbrev  0x00001177      0x1be ./emlib/src/em_burtc.o
 .debug_abbrev  0x00001335      0x2de ./emlib/src/em_cmu.o
 .debug_abbrev  0x00001613      0x237 ./emlib/src/em_core.o
 .debug_abbrev  0x0000184a      0x240 ./emlib/src/em_dma.o
 .debug_abbrev  0x00001a8a      0x1c0 ./emlib/src/em_gpio.o
 .debug_abbrev  0x00001c4a      0x1a1 ./emlib/src/em_letimer.o
 .debug_abbrev  0x00001deb      0x1e0 ./emlib/src/em_leuart.o
 .debug_abbrev  0x00001fcb      0x1ec ./emlib/src/em_rmu.o
 .debug_abbrev  0x000021b7      0x196 ./emlib/src/em_rtc.o
 .debug_abbrev  0x0000234d      0x107 ./emlib/src/em_system.o
 .debug_abbrev  0x00002454      0x172 ./emlib/src/em_timer.o
 .debug_abbrev  0x000025c6      0x1c5 ./emlib/src/em_usart.o
 .debug_abbrev  0x0000278b       0xf2 ./fat_filesystem_src/diskio.o
 .debug_abbrev  0x0000287d      0x212 ./fat_filesystem_src/ff.o
 .debug_abbrev  0x00002a8f       0xee ./fifo_buffers_src/fifo_rs232.o
 .debug_abbrev  0x00002b7d       0xf5 ./fifo_buffers_src/fifo_tbr.o
 .debug_abbrev  0x00002c72      0x107 ./hal/debug.o
 .debug_abbrev  0x00002d79      0x392 ./hal/hal.o
 .debug_abbrev  0x0000310b      0x380 ./lmic/lmic.o
 .debug_abbrev  0x0000348b      0x18c ./lmic/oslmic.o
 .debug_abbrev  0x00003617      0x228 ./lmic/radio.o
 .debug_abbrev  0x0000383f      0x1b7 ./resource managers_src/app_manager.o
 .debug_abbrev  0x000039f6      0x1b1 ./resource managers_src/lpwan_manager.o
 .debug_abbrev  0x00003ba7      0x16f ./src/main.o

.debug_aranges  0x00000000     0x1598
 .debug_aranges
                0x00000000       0x20 ./CMSIS/EFM32GG/startup_efm32gg.o
 .debug_aranges
                0x00000020       0x70 ./CMSIS/EFM32GG/system_efm32gg.o
 .debug_aranges
                0x00000090       0x50 ./devices_src/rgb_led.o
 .debug_aranges
                0x000000e0       0x70 ./devices_src/sd_card.o
 .debug_aranges
                0x00000150       0xa0 ./devices_src/tbr.o
 .debug_aranges
                0x000001f0       0x98 ./devices_src/ublox_gps.o
 .debug_aranges
                0x00000288       0x80 ./drivers_src/delay.o
 .debug_aranges
                0x00000308       0xa8 ./drivers_src/pwm.o
 .debug_aranges
                0x000003b0       0x98 ./drivers_src/rs232.o
 .debug_aranges
                0x00000448       0xa0 ./drivers_src/rs485.o
 .debug_aranges
                0x000004e8       0x78 ./drivers_src/spi.o
 .debug_aranges
                0x00000560       0x80 ./emlib/src/em_burtc.o
 .debug_aranges
                0x000005e0      0x168 ./emlib/src/em_cmu.o
 .debug_aranges
                0x00000748       0xe8 ./emlib/src/em_core.o
 .debug_aranges
                0x00000830       0xc0 ./emlib/src/em_dma.o
 .debug_aranges
                0x000008f0       0x70 ./emlib/src/em_gpio.o
 .debug_aranges
                0x00000960       0x58 ./emlib/src/em_letimer.o
 .debug_aranges
                0x000009b8       0x88 ./emlib/src/em_leuart.o
 .debug_aranges
                0x00000a40       0x50 ./emlib/src/em_rmu.o
 .debug_aranges
                0x00000a90       0x58 ./emlib/src/em_rtc.o
 .debug_aranges
                0x00000ae8       0x28 ./emlib/src/em_system.o
 .debug_aranges
                0x00000b10       0x58 ./emlib/src/em_timer.o
 .debug_aranges
                0x00000b68       0xb8 ./emlib/src/em_usart.o
 .debug_aranges
                0x00000c20       0x40 ./fat_filesystem_src/diskio.o
 .debug_aranges
                0x00000c60      0x1d8 ./fat_filesystem_src/ff.o
 .debug_aranges
                0x00000e38       0x40 ./fifo_buffers_src/fifo_rs232.o
 .debug_aranges
                0x00000e78       0x40 ./fifo_buffers_src/fifo_tbr.o
 .debug_aranges
                0x00000eb8       0x60 ./hal/debug.o
 .debug_aranges
                0x00000f18      0x170 ./hal/hal.o
 .debug_aranges
                0x00001088      0x308 ./lmic/lmic.o
 .debug_aranges
                0x00001390       0x50 ./lmic/oslmic.o
 .debug_aranges
                0x000013e0       0xc0 ./lmic/radio.o
 .debug_aranges
                0x000014a0       0x58 ./resource managers_src/app_manager.o
 .debug_aranges
                0x000014f8       0x70 ./resource managers_src/lpwan_manager.o
 .debug_aranges
                0x00001568       0x30 ./src/main.o

.debug_loc      0x00000000     0xb614
 .debug_loc     0x00000000      0x31c ./CMSIS/EFM32GG/system_efm32gg.o
 .debug_loc     0x0000031c      0x1dc ./devices_src/rgb_led.o
 .debug_loc     0x000004f8      0x2f8 ./devices_src/sd_card.o
 .debug_loc     0x000007f0      0x532 ./devices_src/tbr.o
 .debug_loc     0x00000d22      0x4cc ./devices_src/ublox_gps.o
 .debug_loc     0x000011ee      0x404 ./drivers_src/delay.o
 .debug_loc     0x000015f2      0x54c ./drivers_src/pwm.o
 .debug_loc     0x00001b3e      0x470 ./drivers_src/rs232.o
 .debug_loc     0x00001fae      0x4cc ./drivers_src/rs485.o
 .debug_loc     0x0000247a      0x378 ./drivers_src/spi.o
 .debug_loc     0x000027f2      0x434 ./emlib/src/em_burtc.o
 .debug_loc     0x00002c26      0xd50 ./emlib/src/em_cmu.o
 .debug_loc     0x00003976      0x88c ./emlib/src/em_core.o
 .debug_loc     0x00004202      0x72c ./emlib/src/em_dma.o
 .debug_loc     0x0000492e      0x3d0 ./emlib/src/em_gpio.o
 .debug_loc     0x00004cfe      0x2d4 ./emlib/src/em_letimer.o
 .debug_loc     0x00004fd2      0x49c ./emlib/src/em_leuart.o
 .debug_loc     0x0000546e      0x23c ./emlib/src/em_rmu.o
 .debug_loc     0x000056aa      0x28c ./emlib/src/em_rtc.o
 .debug_loc     0x00005936       0xb8 ./emlib/src/em_system.o
 .debug_loc     0x000059ee      0x2b0 ./emlib/src/em_timer.o
 .debug_loc     0x00005c9e      0x6d2 ./emlib/src/em_usart.o
 .debug_loc     0x00006370      0x1a8 ./fat_filesystem_src/diskio.o
 .debug_loc     0x00006518     0x1232 ./fat_filesystem_src/ff.o
 .debug_loc     0x0000774a      0x1b4 ./fifo_buffers_src/fifo_rs232.o
 .debug_loc     0x000078fe      0x1b4 ./fifo_buffers_src/fifo_tbr.o
 .debug_loc     0x00007ab2      0x2ac ./hal/debug.o
 .debug_loc     0x00007d5e      0xcca ./hal/hal.o
 .debug_loc     0x00008a28     0x1d4a ./lmic/lmic.o
 .debug_loc     0x0000a772      0x1dc ./lmic/oslmic.o
 .debug_loc     0x0000a94e      0x624 ./lmic/radio.o
 .debug_loc     0x0000af72      0x2da ./resource managers_src/app_manager.o
 .debug_loc     0x0000b24c      0x308 ./resource managers_src/lpwan_manager.o
 .debug_loc     0x0000b554       0xc0 ./src/main.o

.debug_ranges   0x00000000     0x1358
 .debug_ranges  0x00000000       0x60 ./CMSIS/EFM32GG/system_efm32gg.o
 .debug_ranges  0x00000060       0x40 ./devices_src/rgb_led.o
 .debug_ranges  0x000000a0       0x60 ./devices_src/sd_card.o
 .debug_ranges  0x00000100       0x90 ./devices_src/tbr.o
 .debug_ranges  0x00000190       0x88 ./devices_src/ublox_gps.o
 .debug_ranges  0x00000218       0x70 ./drivers_src/delay.o
 .debug_ranges  0x00000288       0x98 ./drivers_src/pwm.o
 .debug_ranges  0x00000320       0x88 ./drivers_src/rs232.o
 .debug_ranges  0x000003a8       0x90 ./drivers_src/rs485.o
 .debug_ranges  0x00000438       0x68 ./drivers_src/spi.o
 .debug_ranges  0x000004a0       0x70 ./emlib/src/em_burtc.o
 .debug_ranges  0x00000510      0x158 ./emlib/src/em_cmu.o
 .debug_ranges  0x00000668       0xd8 ./emlib/src/em_core.o
 .debug_ranges  0x00000740       0xb0 ./emlib/src/em_dma.o
 .debug_ranges  0x000007f0       0x60 ./emlib/src/em_gpio.o
 .debug_ranges  0x00000850       0x48 ./emlib/src/em_letimer.o
 .debug_ranges  0x00000898       0x78 ./emlib/src/em_leuart.o
 .debug_ranges  0x00000910       0x40 ./emlib/src/em_rmu.o
 .debug_ranges  0x00000950       0x48 ./emlib/src/em_rtc.o
 .debug_ranges  0x00000998       0x18 ./emlib/src/em_system.o
 .debug_ranges  0x000009b0       0x48 ./emlib/src/em_timer.o
 .debug_ranges  0x000009f8       0xa8 ./emlib/src/em_usart.o
 .debug_ranges  0x00000aa0       0x30 ./fat_filesystem_src/diskio.o
 .debug_ranges  0x00000ad0      0x1c8 ./fat_filesystem_src/ff.o
 .debug_ranges  0x00000c98       0x30 ./fifo_buffers_src/fifo_rs232.o
 .debug_ranges  0x00000cc8       0x30 ./fifo_buffers_src/fifo_tbr.o
 .debug_ranges  0x00000cf8       0x50 ./hal/debug.o
 .debug_ranges  0x00000d48      0x160 ./hal/hal.o
 .debug_ranges  0x00000ea8      0x2f8 ./lmic/lmic.o
 .debug_ranges  0x000011a0       0x40 ./lmic/oslmic.o
 .debug_ranges  0x000011e0       0xb0 ./lmic/radio.o
 .debug_ranges  0x00001290       0x48 ./resource managers_src/app_manager.o
 .debug_ranges  0x000012d8       0x60 ./resource managers_src/lpwan_manager.o
 .debug_ranges  0x00001338       0x20 ./src/main.o

.debug_str      0x00000000     0x6b90
 .debug_str     0x00000000      0x442 ./CMSIS/EFM32GG/system_efm32gg.o
                                0x4c9 (size before relaxing)
 .debug_str     0x00000442      0x580 ./devices_src/rgb_led.o
                                0x760 (size before relaxing)
 .debug_str     0x000009c2       0xce ./devices_src/sd_card.o
                                0x57c (size before relaxing)
 .debug_str     0x00000a90      0x30f ./devices_src/tbr.o
                                0x83b (size before relaxing)
 .debug_str     0x00000d9f      0x25b ./devices_src/ublox_gps.o
                                0x783 (size before relaxing)
 .debug_str     0x00000ffa      0x362 ./drivers_src/delay.o
                                0x7ef (size before relaxing)
 .debug_str     0x0000135c       0x9f ./drivers_src/pwm.o
                                0x855 (size before relaxing)
 .debug_str     0x000013fb      0x71c ./drivers_src/rs232.o
                                0xe3c (size before relaxing)
 .debug_str     0x00001b17      0x3a3 ./drivers_src/rs485.o
                                0xdad (size before relaxing)
 .debug_str     0x00001eba      0x11b ./drivers_src/spi.o
                                0xac1 (size before relaxing)
 .debug_str     0x00001fd5      0x2cf ./emlib/src/em_burtc.o
                                0x4cc (size before relaxing)
 .debug_str     0x000022a4      0x9bc ./emlib/src/em_cmu.o
                               0x1040 (size before relaxing)
 .debug_str     0x00002c60      0x3bd ./emlib/src/em_core.o
                                0x806 (size before relaxing)
 .debug_str     0x0000301d      0x614 ./emlib/src/em_dma.o
                                0xd57 (size before relaxing)
 .debug_str     0x00003631      0x150 ./emlib/src/em_gpio.o
                                0x600 (size before relaxing)
 .debug_str     0x00003781      0x251 ./emlib/src/em_letimer.o
                                0x44c (size before relaxing)
 .debug_str     0x000039d2      0x167 ./emlib/src/em_leuart.o
                                0x748 (size before relaxing)
 .debug_str     0x00003b39      0x196 ./emlib/src/em_rmu.o
                                0x408 (size before relaxing)
 .debug_str     0x00003ccf       0x63 ./emlib/src/em_rtc.o
                                0x2e6 (size before relaxing)
 .debug_str     0x00003d32       0xfd ./emlib/src/em_system.o
                                0x2e4 (size before relaxing)
 .debug_str     0x00003e2f      0x4f7 ./emlib/src/em_timer.o
                                0x994 (size before relaxing)
 .debug_str     0x00004326      0x546 ./emlib/src/em_usart.o
                                0xdbc (size before relaxing)
 .debug_str     0x0000486c       0xb8 ./fat_filesystem_src/diskio.o
                                0x2d0 (size before relaxing)
 .debug_str     0x00004924      0x4f2 ./fat_filesystem_src/ff.o
                                0x76f (size before relaxing)
 .debug_str     0x00004e16      0x109 ./fifo_buffers_src/fifo_rs232.o
                                0x30e (size before relaxing)
 .debug_str     0x00004f1f      0x124 ./fifo_buffers_src/fifo_tbr.o
                                0x37b (size before relaxing)
 .debug_str     0x00005043      0x16b ./hal/debug.o
                                0x3fd (size before relaxing)
 .debug_str     0x000051ae      0x4c3 ./hal/hal.o
                               0x1487 (size before relaxing)
 .debug_str     0x00005671     0x101f ./lmic/lmic.o
                               0x1627 (size before relaxing)
 .debug_str     0x00006690       0x8e ./lmic/oslmic.o
                                0x53b (size before relaxing)
 .debug_str     0x0000671e      0x140 ./lmic/radio.o
                                0x8d0 (size before relaxing)
 .debug_str     0x0000685e      0x211 ./resource managers_src/app_manager.o
                                0x823 (size before relaxing)
 .debug_str     0x00006a6f       0xf9 ./resource managers_src/lpwan_manager.o
                                0x821 (size before relaxing)
 .debug_str     0x00006b68       0x28 ./src/main.o
                                0x95d (size before relaxing)

.debug_frame    0x00000000     0x608c
 .debug_frame   0x00000000      0x180 ./CMSIS/EFM32GG/system_efm32gg.o
 .debug_frame   0x00000180       0xfc ./devices_src/rgb_led.o
 .debug_frame   0x0000027c      0x190 ./devices_src/sd_card.o
 .debug_frame   0x0000040c      0x280 ./devices_src/tbr.o
 .debug_frame   0x0000068c      0x258 ./devices_src/ublox_gps.o
 .debug_frame   0x000008e4      0x1e8 ./drivers_src/delay.o
 .debug_frame   0x00000acc      0x28c ./drivers_src/pwm.o
 .debug_frame   0x00000d58      0x23c ./drivers_src/rs232.o
 .debug_frame   0x00000f94      0x260 ./drivers_src/rs485.o
 .debug_frame   0x000011f4      0x1b8 ./drivers_src/spi.o
 .debug_frame   0x000013ac      0x1f4 ./emlib/src/em_burtc.o
 .debug_frame   0x000015a0      0x628 ./emlib/src/em_cmu.o
 .debug_frame   0x00001bc8      0x3dc ./emlib/src/em_core.o
 .debug_frame   0x00001fa4      0x340 ./emlib/src/em_dma.o
 .debug_frame   0x000022e4      0x1c0 ./emlib/src/em_gpio.o
 .debug_frame   0x000024a4      0x14c ./emlib/src/em_letimer.o
 .debug_frame   0x000025f0      0x21c ./emlib/src/em_leuart.o
 .debug_frame   0x0000280c      0x110 ./emlib/src/em_rmu.o
 .debug_frame   0x0000291c      0x138 ./emlib/src/em_rtc.o
 .debug_frame   0x00002a54       0x60 ./emlib/src/em_system.o
 .debug_frame   0x00002ab4      0x140 ./emlib/src/em_timer.o
 .debug_frame   0x00002bf4      0x310 ./emlib/src/em_usart.o
 .debug_frame   0x00002f04       0xcc ./fat_filesystem_src/diskio.o
 .debug_frame   0x00002fd0      0x854 ./fat_filesystem_src/ff.o
 .debug_frame   0x00003824       0xd0 ./fifo_buffers_src/fifo_rs232.o
 .debug_frame   0x000038f4       0xd0 ./fifo_buffers_src/fifo_tbr.o
 .debug_frame   0x000039c4      0x14c ./hal/debug.o
 .debug_frame   0x00003b10      0x61c ./hal/hal.o
 .debug_frame   0x0000412c      0xda0 ./lmic/lmic.o
 .debug_frame   0x00004ecc       0xfc ./lmic/oslmic.o
 .debug_frame   0x00004fc8      0x2fc ./lmic/radio.o
 .debug_frame   0x000052c4      0x17c ./resource managers_src/app_manager.o
 .debug_frame   0x00005440      0x194 ./resource managers_src/lpwan_manager.o
 .debug_frame   0x000055d4       0x70 ./src/main.o
 .debug_frame   0x00005644       0x28 c:/siliconlabs/simplicitystudio/v4/developer/toolchains/gnu_arm/4.9_2015q3/bin/../lib/gcc/arm-none-eabi/4.9.3/armv7-m\libgcc.a(_aeabi_uldivmod.o)
 .debug_frame   0x0000566c       0x54 c:/siliconlabs/simplicitystudio/v4/developer/toolchains/gnu_arm/4.9_2015q3/bin/../lib/gcc/arm-none-eabi/4.9.3/armv7-m\libgcc.a(bpabi.o)
 .debug_frame   0x000056c0       0x34 c:/siliconlabs/simplicitystudio/v4/developer/toolchains/gnu_arm/4.9_2015q3/bin/../lib/gcc/arm-none-eabi/4.9.3/armv7-m\libgcc.a(_divdi3.o)
 .debug_frame   0x000056f4       0x34 c:/siliconlabs/simplicitystudio/v4/developer/toolchains/gnu_arm/4.9_2015q3/bin/../lib/gcc/arm-none-eabi/4.9.3/armv7-m\libgcc.a(_udivdi3.o)
 .debug_frame   0x00005728       0x28 c:/siliconlabs/simplicitystudio/v4/developer/toolchains/gnu_arm/4.9_2015q3/bin/../lib/gcc/arm-none-eabi/4.9.3/../../../../arm-none-eabi/lib/armv7-m\libc_nano.a(lib_a-exit.o)
 .debug_frame   0x00005750       0x2c c:/siliconlabs/simplicitystudio/v4/developer/toolchains/gnu_arm/4.9_2015q3/bin/../lib/gcc/arm-none-eabi/4.9.3/../../../../arm-none-eabi/lib/armv7-m\libc_nano.a(lib_a-init.o)
 .debug_frame   0x0000577c       0x28 c:/siliconlabs/simplicitystudio/v4/developer/toolchains/gnu_arm/4.9_2015q3/bin/../lib/gcc/arm-none-eabi/4.9.3/../../../../arm-none-eabi/lib/armv7-m\libc_nano.a(lib_a-memcpy.o)
 .debug_frame   0x000057a4       0x20 c:/siliconlabs/simplicitystudio/v4/developer/toolchains/gnu_arm/4.9_2015q3/bin/../lib/gcc/arm-none-eabi/4.9.3/../../../../arm-none-eabi/lib/armv7-m\libc_nano.a(lib_a-memset.o)
 .debug_frame   0x000057c4       0x8c c:/siliconlabs/simplicitystudio/v4/developer/toolchains/gnu_arm/4.9_2015q3/bin/../lib/gcc/arm-none-eabi/4.9.3/../../../../arm-none-eabi/lib/armv7-m\libc_nano.a(lib_a-nano-vfprintf_float.o)
 .debug_frame   0x00005850       0x58 c:/siliconlabs/simplicitystudio/v4/developer/toolchains/gnu_arm/4.9_2015q3/bin/../lib/gcc/arm-none-eabi/4.9.3/../../../../arm-none-eabi/lib/armv7-m\libc_nano.a(lib_a-nano-vfprintf_i.o)
 .debug_frame   0x000058a8       0x28 c:/siliconlabs/simplicitystudio/v4/developer/toolchains/gnu_arm/4.9_2015q3/bin/../lib/gcc/arm-none-eabi/4.9.3/../../../../arm-none-eabi/lib/armv7-m\libc_nano.a(lib_a-s_fpclassify.o)
 .debug_frame   0x000058d0       0x70 c:/siliconlabs/simplicitystudio/v4/developer/toolchains/gnu_arm/4.9_2015q3/bin/../lib/gcc/arm-none-eabi/4.9.3/../../../../arm-none-eabi/lib/armv7-m\libc_nano.a(lib_a-sprintf.o)
 .debug_frame   0x00005940       0x20 c:/siliconlabs/simplicitystudio/v4/developer/toolchains/gnu_arm/4.9_2015q3/bin/../lib/gcc/arm-none-eabi/4.9.3/../../../../arm-none-eabi/lib/armv7-m\libc_nano.a(lib_a-strchr.o)
 .debug_frame   0x00005960       0x20 c:/siliconlabs/simplicitystudio/v4/developer/toolchains/gnu_arm/4.9_2015q3/bin/../lib/gcc/arm-none-eabi/4.9.3/../../../../arm-none-eabi/lib/armv7-m\libc_nano.a(lib_a-strlen.o)
 .debug_frame   0x00005980       0x2c c:/siliconlabs/simplicitystudio/v4/developer/toolchains/gnu_arm/4.9_2015q3/bin/../lib/gcc/arm-none-eabi/4.9.3/../../../../arm-none-eabi/lib/armv7-m\libc_nano.a(lib_a-strncmp.o)
 .debug_frame   0x000059ac       0x2c c:/siliconlabs/simplicitystudio/v4/developer/toolchains/gnu_arm/4.9_2015q3/bin/../lib/gcc/arm-none-eabi/4.9.3/../../../../arm-none-eabi/lib/armv7-m\libc_nano.a(lib_a-strstr.o)
 .debug_frame   0x000059d8       0x38 c:/siliconlabs/simplicitystudio/v4/developer/toolchains/gnu_arm/4.9_2015q3/bin/../lib/gcc/arm-none-eabi/4.9.3/../../../../arm-none-eabi/lib/armv7-m\libc_nano.a(lib_a-strtok.o)
 .debug_frame   0x00005a10       0x40 c:/siliconlabs/simplicitystudio/v4/developer/toolchains/gnu_arm/4.9_2015q3/bin/../lib/gcc/arm-none-eabi/4.9.3/../../../../arm-none-eabi/lib/armv7-m\libc_nano.a(lib_a-strtok_r.o)
 .debug_frame   0x00005a50       0x54 c:/siliconlabs/simplicitystudio/v4/developer/toolchains/gnu_arm/4.9_2015q3/bin/../lib/gcc/arm-none-eabi/4.9.3/../../../../arm-none-eabi/lib/armv7-m\libc_nano.a(lib_a-strtoul.o)
 .debug_frame   0x00005aa4       0x6c c:/siliconlabs/simplicitystudio/v4/developer/toolchains/gnu_arm/4.9_2015q3/bin/../lib/gcc/arm-none-eabi/4.9.3/../../../../arm-none-eabi/lib/armv7-m\libc_nano.a(lib_a-dtoa.o)
 .debug_frame   0x00005b10       0x98 c:/siliconlabs/simplicitystudio/v4/developer/toolchains/gnu_arm/4.9_2015q3/bin/../lib/gcc/arm-none-eabi/4.9.3/../../../../arm-none-eabi/lib/armv7-m\libc_nano.a(lib_a-locale.o)
 .debug_frame   0x00005ba8       0x30 c:/siliconlabs/simplicitystudio/v4/developer/toolchains/gnu_arm/4.9_2015q3/bin/../lib/gcc/arm-none-eabi/4.9.3/../../../../arm-none-eabi/lib/armv7-m\libc_nano.a(lib_a-malloc.o)
 .debug_frame   0x00005bd8       0x28 c:/siliconlabs/simplicitystudio/v4/developer/toolchains/gnu_arm/4.9_2015q3/bin/../lib/gcc/arm-none-eabi/4.9.3/../../../../arm-none-eabi/lib/armv7-m\libc_nano.a(lib_a-memchr.o)
 .debug_frame   0x00005c00      0x230 c:/siliconlabs/simplicitystudio/v4/developer/toolchains/gnu_arm/4.9_2015q3/bin/../lib/gcc/arm-none-eabi/4.9.3/../../../../arm-none-eabi/lib/armv7-m\libc_nano.a(lib_a-mprec.o)
 .debug_frame   0x00005e30       0x2c c:/siliconlabs/simplicitystudio/v4/developer/toolchains/gnu_arm/4.9_2015q3/bin/../lib/gcc/arm-none-eabi/4.9.3/../../../../arm-none-eabi/lib/armv7-m\libc_nano.a(lib_a-nano-callocr.o)
 .debug_frame   0x00005e5c       0x2c c:/siliconlabs/simplicitystudio/v4/developer/toolchains/gnu_arm/4.9_2015q3/bin/../lib/gcc/arm-none-eabi/4.9.3/../../../../arm-none-eabi/lib/armv7-m\libc_nano.a(lib_a-nano-freer.o)
 .debug_frame   0x00005e88       0x2c c:/siliconlabs/simplicitystudio/v4/developer/toolchains/gnu_arm/4.9_2015q3/bin/../lib/gcc/arm-none-eabi/4.9.3/../../../../arm-none-eabi/lib/armv7-m\libc_nano.a(lib_a-nano-mallocr.o)
 .debug_frame   0x00005eb4       0x8c c:/siliconlabs/simplicitystudio/v4/developer/toolchains/gnu_arm/4.9_2015q3/bin/../lib/gcc/arm-none-eabi/4.9.3/../../../../arm-none-eabi/lib/armv7-m\libc_nano.a(lib_a-nano-svfprintf.o)
 .debug_frame   0x00005f40       0x2c c:/siliconlabs/simplicitystudio/v4/developer/toolchains/gnu_arm/4.9_2015q3/bin/../lib/gcc/arm-none-eabi/4.9.3/../../../../arm-none-eabi/lib/armv7-m\libc_nano.a(lib_a-sbrkr.o)
 .debug_frame   0x00005f6c       0x28 c:/siliconlabs/simplicitystudio/v4/developer/toolchains/gnu_arm/4.9_2015q3/bin/../lib/gcc/arm-none-eabi/4.9.3/../../../../arm-none-eabi/lib/armv7-m\libc_nano.a(lib_a-memmove.o)
 .debug_frame   0x00005f94       0x3c c:/siliconlabs/simplicitystudio/v4/developer/toolchains/gnu_arm/4.9_2015q3/bin/../lib/gcc/arm-none-eabi/4.9.3/../../../../arm-none-eabi/lib/armv7-m\libc_nano.a(lib_a-nano-reallocr.o)
 .debug_frame   0x00005fd0       0x5c c:/siliconlabs/simplicitystudio/v4/developer/toolchains/gnu_arm/4.9_2015q3/bin/../lib/gcc/arm-none-eabi/4.9.3/../../../../arm-none-eabi/lib/armv7-m\libc_nano.a(lib_a-reent.o)
 .debug_frame   0x0000602c       0x20 c:/siliconlabs/simplicitystudio/v4/developer/toolchains/gnu_arm/4.9_2015q3/bin/../lib/gcc/arm-none-eabi/4.9.3/../../../../arm-none-eabi/lib/armv7-m\libc_nano.a(lib_a-nano-msizer.o)
 .debug_frame   0x0000604c       0x20 c:/siliconlabs/simplicitystudio/v4/developer/toolchains/gnu_arm/4.9_2015q3/bin/../lib/gcc/arm-none-eabi/4.9.3/../../../../arm-none-eabi/lib/armv7-m\libnosys.a(sbrk.o)
 .debug_frame   0x0000606c       0x20 c:/siliconlabs/simplicitystudio/v4/developer/toolchains/gnu_arm/4.9_2015q3/bin/../lib/gcc/arm-none-eabi/4.9.3/../../../../arm-none-eabi/lib/armv7-m\libnosys.a(_exit.o)
